
build/mbed.elf:     file format elf32-littlearm


Disassembly of section .text:

00000000 <__isr_vector>:
       0:	10008000 	andne	r8, r0, r0
       4:	00000225 	andeq	r0, r0, r5, lsr #4
       8:	00000255 	andeq	r0, r0, r5, asr r2
       c:	00000257 	andeq	r0, r0, r7, asr r2
      10:	00000259 	andeq	r0, r0, r9, asr r2
      14:	0000025b 	andeq	r0, r0, fp, asr r2
      18:	0000025d 	andeq	r0, r0, sp, asr r2
	...
      2c:	0000025f 	andeq	r0, r0, pc, asr r2
      30:	00000261 	andeq	r0, r0, r1, ror #4
      34:	00000000 	andeq	r0, r0, r0
      38:	00000263 	andeq	r0, r0, r3, ror #4
      3c:	00000265 	andeq	r0, r0, r5, ror #4
      40:	00000267 	andeq	r0, r0, r7, ror #4
      44:	00000267 	andeq	r0, r0, r7, ror #4
      48:	00000267 	andeq	r0, r0, r7, ror #4
      4c:	00000267 	andeq	r0, r0, r7, ror #4
      50:	00000267 	andeq	r0, r0, r7, ror #4
      54:	00000267 	andeq	r0, r0, r7, ror #4
      58:	00000267 	andeq	r0, r0, r7, ror #4
      5c:	00000267 	andeq	r0, r0, r7, ror #4
      60:	00000267 	andeq	r0, r0, r7, ror #4
      64:	00000267 	andeq	r0, r0, r7, ror #4
      68:	00000267 	andeq	r0, r0, r7, ror #4
      6c:	00000267 	andeq	r0, r0, r7, ror #4
      70:	00000267 	andeq	r0, r0, r7, ror #4
      74:	00000267 	andeq	r0, r0, r7, ror #4
      78:	00000267 	andeq	r0, r0, r7, ror #4
      7c:	00000267 	andeq	r0, r0, r7, ror #4
      80:	00000267 	andeq	r0, r0, r7, ror #4
      84:	00000267 	andeq	r0, r0, r7, ror #4
      88:	00000267 	andeq	r0, r0, r7, ror #4
      8c:	00000267 	andeq	r0, r0, r7, ror #4
      90:	00000267 	andeq	r0, r0, r7, ror #4
      94:	00000267 	andeq	r0, r0, r7, ror #4
      98:	00000267 	andeq	r0, r0, r7, ror #4
      9c:	00000267 	andeq	r0, r0, r7, ror #4
      a0:	00000267 	andeq	r0, r0, r7, ror #4
      a4:	00000267 	andeq	r0, r0, r7, ror #4
      a8:	00000267 	andeq	r0, r0, r7, ror #4
      ac:	00000267 	andeq	r0, r0, r7, ror #4
      b0:	00000267 	andeq	r0, r0, r7, ror #4
      b4:	00000267 	andeq	r0, r0, r7, ror #4
      b8:	00000267 	andeq	r0, r0, r7, ror #4
      bc:	00000267 	andeq	r0, r0, r7, ror #4
      c0:	00000267 	andeq	r0, r0, r7, ror #4
      c4:	00000267 	andeq	r0, r0, r7, ror #4
      c8:	00000267 	andeq	r0, r0, r7, ror #4

000000cc <__do_global_dtors_aux>:
      cc:	b510      	push	{r4, lr}
      ce:	4c05      	ldr	r4, [pc, #20]	; (e4 <__do_global_dtors_aux+0x18>)
      d0:	7823      	ldrb	r3, [r4, #0]
      d2:	b933      	cbnz	r3, e2 <__do_global_dtors_aux+0x16>
      d4:	4b04      	ldr	r3, [pc, #16]	; (e8 <__do_global_dtors_aux+0x1c>)
      d6:	b113      	cbz	r3, de <__do_global_dtors_aux+0x12>
      d8:	4804      	ldr	r0, [pc, #16]	; (ec <__do_global_dtors_aux+0x20>)
      da:	f3af 8000 	nop.w
      de:	2301      	movs	r3, #1
      e0:	7023      	strb	r3, [r4, #0]
      e2:	bd10      	pop	{r4, pc}
      e4:	10000140 	andne	r0, r0, r0, asr #2
      e8:	00000000 	andeq	r0, r0, r0
      ec:	000029b4 			; <UNDEFINED> instruction: 0x000029b4

000000f0 <frame_dummy>:
      f0:	4b08      	ldr	r3, [pc, #32]	; (114 <frame_dummy+0x24>)
      f2:	b510      	push	{r4, lr}
      f4:	b11b      	cbz	r3, fe <frame_dummy+0xe>
      f6:	4808      	ldr	r0, [pc, #32]	; (118 <frame_dummy+0x28>)
      f8:	4908      	ldr	r1, [pc, #32]	; (11c <frame_dummy+0x2c>)
      fa:	f3af 8000 	nop.w
      fe:	4808      	ldr	r0, [pc, #32]	; (120 <frame_dummy+0x30>)
     100:	6803      	ldr	r3, [r0, #0]
     102:	b903      	cbnz	r3, 106 <frame_dummy+0x16>
     104:	bd10      	pop	{r4, pc}
     106:	4b07      	ldr	r3, [pc, #28]	; (124 <frame_dummy+0x34>)
     108:	2b00      	cmp	r3, #0
     10a:	d0fb      	beq.n	104 <frame_dummy+0x14>
     10c:	e8bd 4010 	ldmia.w	sp!, {r4, lr}
     110:	4718      	bx	r3
     112:	bf00      	nop
     114:	00000000 	andeq	r0, r0, r0
     118:	000029b4 			; <UNDEFINED> instruction: 0x000029b4
     11c:	10000144 	andne	r0, r0, r4, asr #2
     120:	10000140 	andne	r0, r0, r0, asr #2
     124:	00000000 	andeq	r0, r0, r0

00000128 <_mainCRTStartup>:
     128:	4b15      	ldr	r3, [pc, #84]	; (180 <_mainCRTStartup+0x58>)
     12a:	2b00      	cmp	r3, #0
     12c:	bf08      	it	eq
     12e:	4b13      	ldreq	r3, [pc, #76]	; (17c <_mainCRTStartup+0x54>)
     130:	469d      	mov	sp, r3
     132:	f5a3 3a80 	sub.w	sl, r3, #65536	; 0x10000
     136:	2100      	movs	r1, #0
     138:	468b      	mov	fp, r1
     13a:	460f      	mov	r7, r1
     13c:	4813      	ldr	r0, [pc, #76]	; (18c <_mainCRTStartup+0x64>)
     13e:	4a14      	ldr	r2, [pc, #80]	; (190 <_mainCRTStartup+0x68>)
     140:	1a12      	subs	r2, r2, r0
     142:	f001 fb86 	bl	1852 <memset>
     146:	4b0f      	ldr	r3, [pc, #60]	; (184 <_mainCRTStartup+0x5c>)
     148:	2b00      	cmp	r3, #0
     14a:	d000      	beq.n	14e <_mainCRTStartup+0x26>
     14c:	4798      	blx	r3
     14e:	4b0e      	ldr	r3, [pc, #56]	; (188 <_mainCRTStartup+0x60>)
     150:	2b00      	cmp	r3, #0
     152:	d000      	beq.n	156 <_mainCRTStartup+0x2e>
     154:	4798      	blx	r3
     156:	2000      	movs	r0, #0
     158:	2100      	movs	r1, #0
     15a:	0004      	movs	r4, r0
     15c:	000d      	movs	r5, r1
     15e:	480d      	ldr	r0, [pc, #52]	; (194 <_mainCRTStartup+0x6c>)
     160:	2800      	cmp	r0, #0
     162:	d002      	beq.n	16a <_mainCRTStartup+0x42>
     164:	480c      	ldr	r0, [pc, #48]	; (198 <_mainCRTStartup+0x70>)
     166:	f3af 8000 	nop.w
     16a:	f001 fb33 	bl	17d4 <__libc_init_array>
     16e:	0020      	movs	r0, r4
     170:	0029      	movs	r1, r5
     172:	f000 f813 	bl	19c <main>
     176:	f001 fa3f 	bl	15f8 <exit>
     17a:	bf00      	nop
     17c:	00080000 	andeq	r0, r8, r0
     180:	10008000 	andne	r8, r0, r0
	...
     18c:	10000140 	andne	r0, r0, r0, asr #2
     190:	1000037c 	andne	r0, r0, ip, ror r3
	...

0000019c <main>:
     19c:	b508      	push	{r3, lr}
     19e:	4c07      	ldr	r4, [pc, #28]	; (1bc <main+0x20>)
     1a0:	4807      	ldr	r0, [pc, #28]	; (1c0 <main+0x24>)
     1a2:	68e3      	ldr	r3, [r4, #12]
     1a4:	6862      	ldr	r2, [r4, #4]
     1a6:	601a      	str	r2, [r3, #0]
     1a8:	f000 ff5c 	bl	1064 <wait>
     1ac:	6923      	ldr	r3, [r4, #16]
     1ae:	6862      	ldr	r2, [r4, #4]
     1b0:	4803      	ldr	r0, [pc, #12]	; (1c0 <main+0x24>)
     1b2:	601a      	str	r2, [r3, #0]
     1b4:	f000 ff56 	bl	1064 <wait>
     1b8:	e7f1      	b.n	19e <main+0x2>
     1ba:	bf00      	nop
     1bc:	1000015c 	andne	r0, r0, ip, asr r1
     1c0:	3e4ccccd 	cdpcc	12, 4, cr12, cr12, cr13, {6}

000001c4 <_GLOBAL__sub_I_myled>:
     1c4:	b510      	push	{r4, lr}
     1c6:	4c06      	ldr	r4, [pc, #24]	; (1e0 <_GLOBAL__sub_I_myled+0x1c>)
     1c8:	2100      	movs	r1, #0
     1ca:	4620      	mov	r0, r4
     1cc:	2218      	movs	r2, #24
     1ce:	f001 fb40 	bl	1852 <memset>
     1d2:	4620      	mov	r0, r4
     1d4:	e8bd 4010 	ldmia.w	sp!, {r4, lr}
     1d8:	4902      	ldr	r1, [pc, #8]	; (1e4 <_GLOBAL__sub_I_myled+0x20>)
     1da:	f000 be91 	b.w	f00 <gpio_init_out>
     1de:	bf00      	nop
     1e0:	1000015c 	andne	r0, r0, ip, asr r1
     1e4:	2009c032 	andcs	ip, r9, r2, lsr r0

000001e8 <NVIC_SetVector>:
     1e8:	4a0c      	ldr	r2, [pc, #48]	; (21c <NVIC_SetVector+0x34>)
     1ea:	b430      	push	{r4, r5}
     1ec:	6893      	ldr	r3, [r2, #8]
     1ee:	6894      	ldr	r4, [r2, #8]
     1f0:	461a      	mov	r2, r3
     1f2:	f1b4 5f80 	cmp.w	r4, #268435456	; 0x10000000
     1f6:	d20c      	bcs.n	212 <NVIC_SetVector+0x2a>
     1f8:	4a09      	ldr	r2, [pc, #36]	; (220 <NVIC_SetVector+0x38>)
     1fa:	f103 05c4 	add.w	r5, r3, #196	; 0xc4
     1fe:	f853 4b04 	ldr.w	r4, [r3], #4
     202:	42ab      	cmp	r3, r5
     204:	f842 4f04 	str.w	r4, [r2, #4]!
     208:	d1f9      	bne.n	1fe <NVIC_SetVector+0x16>
     20a:	4b04      	ldr	r3, [pc, #16]	; (21c <NVIC_SetVector+0x34>)
     20c:	f04f 5280 	mov.w	r2, #268435456	; 0x10000000
     210:	609a      	str	r2, [r3, #8]
     212:	3010      	adds	r0, #16
     214:	f842 1020 	str.w	r1, [r2, r0, lsl #2]
     218:	bc30      	pop	{r4, r5}
     21a:	4770      	bx	lr
     21c:	e000ed00 	and	lr, r0, r0, lsl #26
     220:	0ffffffc 	svceq	0x00fffffc

00000224 <Reset_Handler>:
     224:	4906      	ldr	r1, [pc, #24]	; (240 <Reset_Handler+0x1c>)
     226:	4a07      	ldr	r2, [pc, #28]	; (244 <Reset_Handler+0x20>)
     228:	4b07      	ldr	r3, [pc, #28]	; (248 <Reset_Handler+0x24>)
     22a:	429a      	cmp	r2, r3
     22c:	bfbe      	ittt	lt
     22e:	f851 0b04 	ldrlt.w	r0, [r1], #4
     232:	f842 0b04 	strlt.w	r0, [r2], #4
     236:	e7f8      	blt.n	22a <Reset_Handler+0x6>
     238:	4804      	ldr	r0, [pc, #16]	; (24c <Reset_Handler+0x28>)
     23a:	4780      	blx	r0
     23c:	4804      	ldr	r0, [pc, #16]	; (250 <Reset_Handler+0x2c>)
     23e:	4700      	bx	r0
     240:	000029c0 	andeq	r2, r0, r0, asr #19
     244:	100000c8 	andne	r0, r0, r8, asr #1
     248:	10000140 	andne	r0, r0, r0, asr #2
     24c:	000003e1 	andeq	r0, r0, r1, ror #7
     250:	00000129 	andeq	r0, r0, r9, lsr #2

00000254 <NMI_Handler>:
     254:	e7fe      	b.n	254 <NMI_Handler>

00000256 <HardFault_Handler>:
     256:	e7fe      	b.n	256 <HardFault_Handler>

00000258 <MemManage_Handler>:
     258:	e7fe      	b.n	258 <MemManage_Handler>

0000025a <BusFault_Handler>:
     25a:	e7fe      	b.n	25a <BusFault_Handler>

0000025c <UsageFault_Handler>:
     25c:	e7fe      	b.n	25c <UsageFault_Handler>

0000025e <SVC_Handler>:
     25e:	e7fe      	b.n	25e <SVC_Handler>

00000260 <DebugMon_Handler>:
     260:	e7fe      	b.n	260 <DebugMon_Handler>

00000262 <PendSV_Handler>:
     262:	e7fe      	b.n	262 <PendSV_Handler>

00000264 <SysTick_Handler>:
     264:	e7fe      	b.n	264 <SysTick_Handler>

00000266 <ADC_IRQHandler>:
     266:	e7fe      	b.n	266 <ADC_IRQHandler>

00000268 <_ZL11init_serialv.part.0>:
     268:	4802      	ldr	r0, [pc, #8]	; (274 <_ZL11init_serialv.part.0+0xc>)
     26a:	4903      	ldr	r1, [pc, #12]	; (278 <_ZL11init_serialv.part.0+0x10>)
     26c:	4a03      	ldr	r2, [pc, #12]	; (27c <_ZL11init_serialv.part.0+0x14>)
     26e:	f000 bd2f 	b.w	cd0 <serial_init>
     272:	bf00      	nop
     274:	10000370 	andne	r0, r0, r0, ror r3
     278:	2009c002 	andcs	ip, r9, r2
     27c:	2009c003 	andcs	ip, r9, r3

00000280 <_close>:
     280:	2802      	cmp	r0, #2
     282:	b508      	push	{r3, lr}
     284:	dd0b      	ble.n	29e <_close+0x1e>
     286:	4b08      	ldr	r3, [pc, #32]	; (2a8 <_close+0x28>)
     288:	1ec2      	subs	r2, r0, #3
     28a:	f853 0022 	ldr.w	r0, [r3, r2, lsl #2]
     28e:	2100      	movs	r1, #0
     290:	f843 1022 	str.w	r1, [r3, r2, lsl #2]
     294:	b128      	cbz	r0, 2a2 <_close+0x22>
     296:	6803      	ldr	r3, [r0, #0]
     298:	685b      	ldr	r3, [r3, #4]
     29a:	4798      	blx	r3
     29c:	bd08      	pop	{r3, pc}
     29e:	2000      	movs	r0, #0
     2a0:	bd08      	pop	{r3, pc}
     2a2:	f04f 30ff 	mov.w	r0, #4294967295	; 0xffffffff
     2a6:	bd08      	pop	{r3, pc}
     2a8:	10000174 	andne	r0, r0, r4, ror r1

000002ac <_write>:
     2ac:	2802      	cmp	r0, #2
     2ae:	b570      	push	{r4, r5, r6, lr}
     2b0:	460c      	mov	r4, r1
     2b2:	4616      	mov	r6, r2
     2b4:	dc0f      	bgt.n	2d6 <_write+0x2a>
     2b6:	4b0e      	ldr	r3, [pc, #56]	; (2f0 <_write+0x44>)
     2b8:	681b      	ldr	r3, [r3, #0]
     2ba:	b90b      	cbnz	r3, 2c0 <_write+0x14>
     2bc:	f7ff ffd4 	bl	268 <_ZL11init_serialv.part.0>
     2c0:	19a5      	adds	r5, r4, r6
     2c2:	b136      	cbz	r6, 2d2 <_write+0x26>
     2c4:	f814 1b01 	ldrb.w	r1, [r4], #1
     2c8:	480a      	ldr	r0, [pc, #40]	; (2f4 <_write+0x48>)
     2ca:	f000 fc51 	bl	b70 <serial_putc>
     2ce:	42ac      	cmp	r4, r5
     2d0:	d1f8      	bne.n	2c4 <_write+0x18>
     2d2:	4630      	mov	r0, r6
     2d4:	bd70      	pop	{r4, r5, r6, pc}
     2d6:	4b08      	ldr	r3, [pc, #32]	; (2f8 <_write+0x4c>)
     2d8:	3803      	subs	r0, #3
     2da:	f853 0020 	ldr.w	r0, [r3, r0, lsl #2]
     2de:	b118      	cbz	r0, 2e8 <_write+0x3c>
     2e0:	6803      	ldr	r3, [r0, #0]
     2e2:	681b      	ldr	r3, [r3, #0]
     2e4:	4798      	blx	r3
     2e6:	bd70      	pop	{r4, r5, r6, pc}
     2e8:	f04f 30ff 	mov.w	r0, #4294967295	; 0xffffffff
     2ec:	bd70      	pop	{r4, r5, r6, pc}
     2ee:	bf00      	nop
     2f0:	10000274 	andne	r0, r0, r4, ror r2
     2f4:	10000370 	andne	r0, r0, r0, ror r3
     2f8:	10000174 	andne	r0, r0, r4, ror r1

000002fc <_read>:
     2fc:	2802      	cmp	r0, #2
     2fe:	b510      	push	{r4, lr}
     300:	460c      	mov	r4, r1
     302:	dc09      	bgt.n	318 <_read+0x1c>
     304:	4b0d      	ldr	r3, [pc, #52]	; (33c <_read+0x40>)
     306:	681b      	ldr	r3, [r3, #0]
     308:	b18b      	cbz	r3, 32e <_read+0x32>
     30a:	480d      	ldr	r0, [pc, #52]	; (340 <_read+0x44>)
     30c:	f000 fbda 	bl	ac4 <serial_getc>
     310:	2301      	movs	r3, #1
     312:	7020      	strb	r0, [r4, #0]
     314:	4618      	mov	r0, r3
     316:	bd10      	pop	{r4, pc}
     318:	4b0a      	ldr	r3, [pc, #40]	; (344 <_read+0x48>)
     31a:	3803      	subs	r0, #3
     31c:	f853 0020 	ldr.w	r0, [r3, r0, lsl #2]
     320:	b140      	cbz	r0, 334 <_read+0x38>
     322:	6803      	ldr	r3, [r0, #0]
     324:	689b      	ldr	r3, [r3, #8]
     326:	4798      	blx	r3
     328:	4603      	mov	r3, r0
     32a:	4618      	mov	r0, r3
     32c:	bd10      	pop	{r4, pc}
     32e:	f7ff ff9b 	bl	268 <_ZL11init_serialv.part.0>
     332:	e7ea      	b.n	30a <_read+0xe>
     334:	f04f 33ff 	mov.w	r3, #4294967295	; 0xffffffff
     338:	e7ec      	b.n	314 <_read+0x18>
     33a:	bf00      	nop
     33c:	10000274 	andne	r0, r0, r4, ror r2
     340:	10000370 	andne	r0, r0, r0, ror r3
     344:	10000174 	andne	r0, r0, r4, ror r1

00000348 <_isatty>:
     348:	2802      	cmp	r0, #2
     34a:	b508      	push	{r3, lr}
     34c:	dd08      	ble.n	360 <_isatty+0x18>
     34e:	4b07      	ldr	r3, [pc, #28]	; (36c <_isatty+0x24>)
     350:	3803      	subs	r0, #3
     352:	f853 0020 	ldr.w	r0, [r3, r0, lsl #2]
     356:	b128      	cbz	r0, 364 <_isatty+0x1c>
     358:	6803      	ldr	r3, [r0, #0]
     35a:	68db      	ldr	r3, [r3, #12]
     35c:	4798      	blx	r3
     35e:	bd08      	pop	{r3, pc}
     360:	2001      	movs	r0, #1
     362:	bd08      	pop	{r3, pc}
     364:	f04f 30ff 	mov.w	r0, #4294967295	; 0xffffffff
     368:	bd08      	pop	{r3, pc}
     36a:	bf00      	nop
     36c:	10000174 	andne	r0, r0, r4, ror r1

00000370 <_lseek>:
     370:	2802      	cmp	r0, #2
     372:	b508      	push	{r3, lr}
     374:	dd08      	ble.n	388 <_lseek+0x18>
     376:	4b07      	ldr	r3, [pc, #28]	; (394 <_lseek+0x24>)
     378:	3803      	subs	r0, #3
     37a:	f853 0020 	ldr.w	r0, [r3, r0, lsl #2]
     37e:	b128      	cbz	r0, 38c <_lseek+0x1c>
     380:	6803      	ldr	r3, [r0, #0]
     382:	691b      	ldr	r3, [r3, #16]
     384:	4798      	blx	r3
     386:	bd08      	pop	{r3, pc}
     388:	2000      	movs	r0, #0
     38a:	bd08      	pop	{r3, pc}
     38c:	f04f 30ff 	mov.w	r0, #4294967295	; 0xffffffff
     390:	bd08      	pop	{r3, pc}
     392:	bf00      	nop
     394:	10000174 	andne	r0, r0, r4, ror r1

00000398 <_fstat>:
     398:	2802      	cmp	r0, #2
     39a:	b508      	push	{r3, lr}
     39c:	d804      	bhi.n	3a8 <_fstat+0x10>
     39e:	f44f 5300 	mov.w	r3, #8192	; 0x2000
     3a2:	604b      	str	r3, [r1, #4]
     3a4:	2000      	movs	r0, #0
     3a6:	bd08      	pop	{r3, pc}
     3a8:	f001 f920 	bl	15ec <__errno>
     3ac:	2309      	movs	r3, #9
     3ae:	6003      	str	r3, [r0, #0]
     3b0:	f04f 30ff 	mov.w	r0, #4294967295	; 0xffffffff
     3b4:	bd08      	pop	{r3, pc}
     3b6:	bf00      	nop

000003b8 <_sbrk>:
     3b8:	4a07      	ldr	r2, [pc, #28]	; (3d8 <_sbrk+0x20>)
     3ba:	6813      	ldr	r3, [r2, #0]
     3bc:	4418      	add	r0, r3
     3be:	f3ef 8108 	mrs	r1, MSP
     3c2:	4288      	cmp	r0, r1
     3c4:	d202      	bcs.n	3cc <_sbrk+0x14>
     3c6:	6010      	str	r0, [r2, #0]
     3c8:	4618      	mov	r0, r3
     3ca:	4770      	bx	lr
     3cc:	4b03      	ldr	r3, [pc, #12]	; (3dc <_sbrk+0x24>)
     3ce:	220c      	movs	r2, #12
     3d0:	601a      	str	r2, [r3, #0]
     3d2:	f04f 30ff 	mov.w	r0, #4294967295	; 0xffffffff
     3d6:	4770      	bx	lr
     3d8:	100000c8 	andne	r0, r0, r8, asr #1
     3dc:	10000378 	andne	r0, r0, r8, ror r3

000003e0 <SystemInit>:
     3e0:	4a2b      	ldr	r2, [pc, #172]	; (490 <SystemInit+0xb0>)
     3e2:	2320      	movs	r3, #32
     3e4:	b470      	push	{r4, r5, r6}
     3e6:	f8c2 31a0 	str.w	r3, [r2, #416]	; 0x1a0
     3ea:	f8d2 31a0 	ldr.w	r3, [r2, #416]	; 0x1a0
     3ee:	0698      	lsls	r0, r3, #26
     3f0:	d445      	bmi.n	47e <SystemInit+0x9e>
     3f2:	4b27      	ldr	r3, [pc, #156]	; (490 <SystemInit+0xb0>)
     3f4:	2102      	movs	r1, #2
     3f6:	2500      	movs	r5, #0
     3f8:	2401      	movs	r4, #1
     3fa:	20aa      	movs	r0, #170	; 0xaa
     3fc:	2255      	movs	r2, #85	; 0x55
     3fe:	260b      	movs	r6, #11
     400:	f8c3 1104 	str.w	r1, [r3, #260]	; 0x104
     404:	f8c3 51a8 	str.w	r5, [r3, #424]	; 0x1a8
     408:	4619      	mov	r1, r3
     40a:	f8c3 51ac 	str.w	r5, [r3, #428]	; 0x1ac
     40e:	f8c3 410c 	str.w	r4, [r3, #268]	; 0x10c
     412:	f8c3 6084 	str.w	r6, [r3, #132]	; 0x84
     416:	f8c3 008c 	str.w	r0, [r3, #140]	; 0x8c
     41a:	f8c3 208c 	str.w	r2, [r3, #140]	; 0x8c
     41e:	f8c3 4080 	str.w	r4, [r3, #128]	; 0x80
     422:	f8c3 008c 	str.w	r0, [r3, #140]	; 0x8c
     426:	f8c3 208c 	str.w	r2, [r3, #140]	; 0x8c
     42a:	f8d1 3088 	ldr.w	r3, [r1, #136]	; 0x88
     42e:	4a18      	ldr	r2, [pc, #96]	; (490 <SystemInit+0xb0>)
     430:	015b      	lsls	r3, r3, #5
     432:	d5fa      	bpl.n	42a <SystemInit+0x4a>
     434:	2103      	movs	r1, #3
     436:	20aa      	movs	r0, #170	; 0xaa
     438:	2355      	movs	r3, #85	; 0x55
     43a:	f8c2 1080 	str.w	r1, [r2, #128]	; 0x80
     43e:	f8c2 008c 	str.w	r0, [r2, #140]	; 0x8c
     442:	4611      	mov	r1, r2
     444:	f8c2 308c 	str.w	r3, [r2, #140]	; 0x8c
     448:	f8d1 3088 	ldr.w	r3, [r1, #136]	; 0x88
     44c:	4a10      	ldr	r2, [pc, #64]	; (490 <SystemInit+0xb0>)
     44e:	f013 7f40 	tst.w	r3, #50331648	; 0x3000000
     452:	d0f9      	beq.n	448 <SystemInit+0x68>
     454:	490f      	ldr	r1, [pc, #60]	; (494 <SystemInit+0xb4>)
     456:	2300      	movs	r3, #0
     458:	2005      	movs	r0, #5
     45a:	f8c2 0108 	str.w	r0, [r2, #264]	; 0x108
     45e:	f8c2 10c4 	str.w	r1, [r2, #196]	; 0xc4
     462:	f8c2 31c8 	str.w	r3, [r2, #456]	; 0x1c8
     466:	6813      	ldr	r3, [r2, #0]
     468:	bc70      	pop	{r4, r5, r6}
     46a:	f423 4370 	bic.w	r3, r3, #61440	; 0xf000
     46e:	f023 033a 	bic.w	r3, r3, #58	; 0x3a
     472:	f443 5340 	orr.w	r3, r3, #12288	; 0x3000
     476:	f043 033a 	orr.w	r3, r3, #58	; 0x3a
     47a:	6013      	str	r3, [r2, #0]
     47c:	4770      	bx	lr
     47e:	f8d2 31a0 	ldr.w	r3, [r2, #416]	; 0x1a0
     482:	0659      	lsls	r1, r3, #25
     484:	d4b5      	bmi.n	3f2 <SystemInit+0x12>
     486:	f8d2 31a0 	ldr.w	r3, [r2, #416]	; 0x1a0
     48a:	0659      	lsls	r1, r3, #25
     48c:	d5f7      	bpl.n	47e <SystemInit+0x9e>
     48e:	e7b0      	b.n	3f2 <SystemInit+0x12>
     490:	400fc000 	andmi	ip, pc, r0
     494:	042887de 	strteq	r8, [r8], #-2014	; 0x7de

00000498 <mbed_die>:
     498:	b500      	push	{lr}
     49a:	b099      	sub	sp, #100	; 0x64
     49c:	b672      	cpsid	i
     49e:	493b      	ldr	r1, [pc, #236]	; (58c <mbed_die+0xf4>)
     4a0:	4668      	mov	r0, sp
     4a2:	f000 fd2d 	bl	f00 <gpio_init_out>
     4a6:	a806      	add	r0, sp, #24
     4a8:	4939      	ldr	r1, [pc, #228]	; (590 <mbed_die+0xf8>)
     4aa:	f000 fd29 	bl	f00 <gpio_init_out>
     4ae:	a80c      	add	r0, sp, #48	; 0x30
     4b0:	4938      	ldr	r1, [pc, #224]	; (594 <mbed_die+0xfc>)
     4b2:	f000 fd25 	bl	f00 <gpio_init_out>
     4b6:	a812      	add	r0, sp, #72	; 0x48
     4b8:	4937      	ldr	r1, [pc, #220]	; (598 <mbed_die+0x100>)
     4ba:	f000 fd21 	bl	f00 <gpio_init_out>
     4be:	e032      	b.n	526 <mbed_die+0x8e>
     4c0:	9906      	ldr	r1, [sp, #24]
     4c2:	9b03      	ldr	r3, [sp, #12]
     4c4:	9a01      	ldr	r2, [sp, #4]
     4c6:	3101      	adds	r1, #1
     4c8:	601a      	str	r2, [r3, #0]
     4ca:	d059      	beq.n	580 <mbed_die+0xe8>
     4cc:	990c      	ldr	r1, [sp, #48]	; 0x30
     4ce:	9b0a      	ldr	r3, [sp, #40]	; 0x28
     4d0:	9a07      	ldr	r2, [sp, #28]
     4d2:	3101      	adds	r1, #1
     4d4:	601a      	str	r2, [r3, #0]
     4d6:	d04d      	beq.n	574 <mbed_die+0xdc>
     4d8:	9912      	ldr	r1, [sp, #72]	; 0x48
     4da:	9b10      	ldr	r3, [sp, #64]	; 0x40
     4dc:	9a0d      	ldr	r2, [sp, #52]	; 0x34
     4de:	3101      	adds	r1, #1
     4e0:	601a      	str	r2, [r3, #0]
     4e2:	d041      	beq.n	568 <mbed_die+0xd0>
     4e4:	9b15      	ldr	r3, [sp, #84]	; 0x54
     4e6:	9a13      	ldr	r2, [sp, #76]	; 0x4c
     4e8:	2096      	movs	r0, #150	; 0x96
     4ea:	601a      	str	r2, [r3, #0]
     4ec:	f000 fdc6 	bl	107c <wait_ms>
     4f0:	9b00      	ldr	r3, [sp, #0]
     4f2:	3301      	adds	r3, #1
     4f4:	d032      	beq.n	55c <mbed_die+0xc4>
     4f6:	9906      	ldr	r1, [sp, #24]
     4f8:	9b04      	ldr	r3, [sp, #16]
     4fa:	9a01      	ldr	r2, [sp, #4]
     4fc:	3101      	adds	r1, #1
     4fe:	601a      	str	r2, [r3, #0]
     500:	d026      	beq.n	550 <mbed_die+0xb8>
     502:	990c      	ldr	r1, [sp, #48]	; 0x30
     504:	9b09      	ldr	r3, [sp, #36]	; 0x24
     506:	9a07      	ldr	r2, [sp, #28]
     508:	3101      	adds	r1, #1
     50a:	601a      	str	r2, [r3, #0]
     50c:	d01a      	beq.n	544 <mbed_die+0xac>
     50e:	9912      	ldr	r1, [sp, #72]	; 0x48
     510:	9b0f      	ldr	r3, [sp, #60]	; 0x3c
     512:	9a0d      	ldr	r2, [sp, #52]	; 0x34
     514:	3101      	adds	r1, #1
     516:	601a      	str	r2, [r3, #0]
     518:	d00e      	beq.n	538 <mbed_die+0xa0>
     51a:	9b16      	ldr	r3, [sp, #88]	; 0x58
     51c:	9a13      	ldr	r2, [sp, #76]	; 0x4c
     51e:	2096      	movs	r0, #150	; 0x96
     520:	601a      	str	r2, [r3, #0]
     522:	f000 fdab 	bl	107c <wait_ms>
     526:	9b00      	ldr	r3, [sp, #0]
     528:	3301      	adds	r3, #1
     52a:	d1c9      	bne.n	4c0 <mbed_die+0x28>
     52c:	481b      	ldr	r0, [pc, #108]	; (59c <mbed_die+0x104>)
     52e:	491c      	ldr	r1, [pc, #112]	; (5a0 <mbed_die+0x108>)
     530:	2224      	movs	r2, #36	; 0x24
     532:	f000 fcab 	bl	e8c <mbed_assert_internal>
     536:	e7c3      	b.n	4c0 <mbed_die+0x28>
     538:	4818      	ldr	r0, [pc, #96]	; (59c <mbed_die+0x104>)
     53a:	4919      	ldr	r1, [pc, #100]	; (5a0 <mbed_die+0x108>)
     53c:	2224      	movs	r2, #36	; 0x24
     53e:	f000 fca5 	bl	e8c <mbed_assert_internal>
     542:	e7ea      	b.n	51a <mbed_die+0x82>
     544:	4815      	ldr	r0, [pc, #84]	; (59c <mbed_die+0x104>)
     546:	4916      	ldr	r1, [pc, #88]	; (5a0 <mbed_die+0x108>)
     548:	2224      	movs	r2, #36	; 0x24
     54a:	f000 fc9f 	bl	e8c <mbed_assert_internal>
     54e:	e7de      	b.n	50e <mbed_die+0x76>
     550:	4812      	ldr	r0, [pc, #72]	; (59c <mbed_die+0x104>)
     552:	4913      	ldr	r1, [pc, #76]	; (5a0 <mbed_die+0x108>)
     554:	2224      	movs	r2, #36	; 0x24
     556:	f000 fc99 	bl	e8c <mbed_assert_internal>
     55a:	e7d2      	b.n	502 <mbed_die+0x6a>
     55c:	480f      	ldr	r0, [pc, #60]	; (59c <mbed_die+0x104>)
     55e:	4910      	ldr	r1, [pc, #64]	; (5a0 <mbed_die+0x108>)
     560:	2224      	movs	r2, #36	; 0x24
     562:	f000 fc93 	bl	e8c <mbed_assert_internal>
     566:	e7c6      	b.n	4f6 <mbed_die+0x5e>
     568:	480c      	ldr	r0, [pc, #48]	; (59c <mbed_die+0x104>)
     56a:	490d      	ldr	r1, [pc, #52]	; (5a0 <mbed_die+0x108>)
     56c:	2224      	movs	r2, #36	; 0x24
     56e:	f000 fc8d 	bl	e8c <mbed_assert_internal>
     572:	e7b7      	b.n	4e4 <mbed_die+0x4c>
     574:	4809      	ldr	r0, [pc, #36]	; (59c <mbed_die+0x104>)
     576:	490a      	ldr	r1, [pc, #40]	; (5a0 <mbed_die+0x108>)
     578:	2224      	movs	r2, #36	; 0x24
     57a:	f000 fc87 	bl	e8c <mbed_assert_internal>
     57e:	e7ab      	b.n	4d8 <mbed_die+0x40>
     580:	4806      	ldr	r0, [pc, #24]	; (59c <mbed_die+0x104>)
     582:	4907      	ldr	r1, [pc, #28]	; (5a0 <mbed_die+0x108>)
     584:	2224      	movs	r2, #36	; 0x24
     586:	f000 fc81 	bl	e8c <mbed_assert_internal>
     58a:	e79f      	b.n	4cc <mbed_die+0x34>
     58c:	2009c032 	andcs	ip, r9, r2, lsr r0
     590:	2009c034 	andcs	ip, r9, r4, lsr r0
     594:	2009c035 	andcs	ip, r9, r5, lsr r0
     598:	2009c037 	andcs	ip, r9, r7, lsr r0
     59c:	0000243c 	andeq	r2, r0, ip, lsr r4
     5a0:	00002454 	andeq	r2, r0, r4, asr r4

000005a4 <uart2_irq>:
     5a4:	b508      	push	{r3, lr}
     5a6:	4a15      	ldr	r2, [pc, #84]	; (5fc <uart2_irq+0x58>)
     5a8:	6893      	ldr	r3, [r2, #8]
     5aa:	f3c3 0342 	ubfx	r3, r3, #1, #3
     5ae:	2b01      	cmp	r3, #1
     5b0:	d01e      	beq.n	5f0 <uart2_irq+0x4c>
     5b2:	2b02      	cmp	r3, #2
     5b4:	d119      	bne.n	5ea <uart2_irq+0x46>
     5b6:	4b12      	ldr	r3, [pc, #72]	; (600 <uart2_irq+0x5c>)
     5b8:	6f59      	ldr	r1, [r3, #116]	; 0x74
     5ba:	3101      	adds	r1, #1
     5bc:	d00a      	beq.n	5d4 <uart2_irq+0x30>
     5be:	f8d3 1080 	ldr.w	r1, [r3, #128]	; 0x80
     5c2:	6f98      	ldr	r0, [r3, #120]	; 0x78
     5c4:	6008      	str	r0, [r1, #0]
     5c6:	f893 10a6 	ldrb.w	r1, [r3, #166]	; 0xa6
     5ca:	b919      	cbnz	r1, 5d4 <uart2_irq+0x30>
     5cc:	6851      	ldr	r1, [r2, #4]
     5ce:	f021 0101 	bic.w	r1, r1, #1
     5d2:	6051      	str	r1, [r2, #4]
     5d4:	6f18      	ldr	r0, [r3, #112]	; 0x70
     5d6:	4b0a      	ldr	r3, [pc, #40]	; (600 <uart2_irq+0x5c>)
     5d8:	b148      	cbz	r0, 5ee <uart2_irq+0x4a>
     5da:	f893 30a6 	ldrb.w	r3, [r3, #166]	; 0xa6
     5de:	b12b      	cbz	r3, 5ec <uart2_irq+0x48>
     5e0:	2100      	movs	r1, #0
     5e2:	4a08      	ldr	r2, [pc, #32]	; (604 <uart2_irq+0x60>)
     5e4:	6813      	ldr	r3, [r2, #0]
     5e6:	4798      	blx	r3
     5e8:	bd08      	pop	{r3, pc}
     5ea:	bd08      	pop	{r3, pc}
     5ec:	bd08      	pop	{r3, pc}
     5ee:	bd08      	pop	{r3, pc}
     5f0:	4a03      	ldr	r2, [pc, #12]	; (600 <uart2_irq+0x5c>)
     5f2:	6f10      	ldr	r0, [r2, #112]	; 0x70
     5f4:	2800      	cmp	r0, #0
     5f6:	d0f9      	beq.n	5ec <uart2_irq+0x48>
     5f8:	4619      	mov	r1, r3
     5fa:	e7f2      	b.n	5e2 <uart2_irq+0x3e>
     5fc:	40098000 	andmi	r8, r9, r0
     600:	1000027c 	andne	r0, r0, ip, ror r2
     604:	10000278 	andne	r0, r0, r8, ror r2

00000608 <serial_irq_set_internal>:
     608:	b570      	push	{r4, r5, r6, lr}
     60a:	6803      	ldr	r3, [r0, #0]
     60c:	4c29      	ldr	r4, [pc, #164]	; (6b4 <serial_irq_set_internal+0xac>)
     60e:	42a3      	cmp	r3, r4
     610:	d049      	beq.n	6a6 <serial_irq_set_internal+0x9e>
     612:	dd41      	ble.n	698 <serial_irq_set_internal+0x90>
     614:	4c28      	ldr	r4, [pc, #160]	; (6b8 <serial_irq_set_internal+0xb0>)
     616:	42a3      	cmp	r3, r4
     618:	d02a      	beq.n	670 <serial_irq_set_internal+0x68>
     61a:	f504 4480 	add.w	r4, r4, #16384	; 0x4000
     61e:	42a3      	cmp	r3, r4
     620:	d144      	bne.n	6ac <serial_irq_set_internal+0xa4>
     622:	4c26      	ldr	r4, [pc, #152]	; (6bc <serial_irq_set_internal+0xb4>)
     624:	2608      	movs	r6, #8
     626:	bb3a      	cbnz	r2, 678 <serial_irq_set_internal+0x70>
     628:	2901      	cmp	r1, #1
     62a:	d00b      	beq.n	644 <serial_irq_set_internal+0x3c>
     62c:	6845      	ldr	r5, [r0, #4]
     62e:	4a24      	ldr	r2, [pc, #144]	; (6c0 <serial_irq_set_internal+0xb8>)
     630:	ebc5 05c5 	rsb	r5, r5, r5, lsl #3
     634:	eb02 04c5 	add.w	r4, r2, r5, lsl #3
     638:	f894 5035 	ldrb.w	r5, [r4, #53]	; 0x35
     63c:	f894 2036 	ldrb.w	r2, [r4, #54]	; 0x36
     640:	42ea      	cmn	r2, r5
     642:	d114      	bne.n	66e <serial_irq_set_internal+0x66>
     644:	2201      	movs	r2, #1
     646:	fa02 f501 	lsl.w	r5, r2, r1
     64a:	f1d1 0101 	rsbs	r1, r1, #1
     64e:	bf38      	it	cc
     650:	2100      	movcc	r1, #0
     652:	fa02 f101 	lsl.w	r1, r2, r1
     656:	685c      	ldr	r4, [r3, #4]
     658:	ea24 0405 	bic.w	r4, r4, r5
     65c:	605c      	str	r4, [r3, #4]
     65e:	6803      	ldr	r3, [r0, #0]
     660:	685b      	ldr	r3, [r3, #4]
     662:	4219      	tst	r1, r3
     664:	d103      	bne.n	66e <serial_irq_set_internal+0x66>
     666:	40b2      	lsls	r2, r6
     668:	4b16      	ldr	r3, [pc, #88]	; (6c4 <serial_irq_set_internal+0xbc>)
     66a:	f8c3 2080 	str.w	r2, [r3, #128]	; 0x80
     66e:	bd70      	pop	{r4, r5, r6, pc}
     670:	4c15      	ldr	r4, [pc, #84]	; (6c8 <serial_irq_set_internal+0xc0>)
     672:	2607      	movs	r6, #7
     674:	2a00      	cmp	r2, #0
     676:	d0d7      	beq.n	628 <serial_irq_set_internal+0x20>
     678:	2501      	movs	r5, #1
     67a:	fa05 f101 	lsl.w	r1, r5, r1
     67e:	b276      	sxtb	r6, r6
     680:	4630      	mov	r0, r6
     682:	fa05 f606 	lsl.w	r6, r5, r6
     686:	685a      	ldr	r2, [r3, #4]
     688:	430a      	orrs	r2, r1
     68a:	605a      	str	r2, [r3, #4]
     68c:	4621      	mov	r1, r4
     68e:	f7ff fdab 	bl	1e8 <NVIC_SetVector>
     692:	4b0c      	ldr	r3, [pc, #48]	; (6c4 <serial_irq_set_internal+0xbc>)
     694:	601e      	str	r6, [r3, #0]
     696:	bd70      	pop	{r4, r5, r6, pc}
     698:	f5a4 4480 	sub.w	r4, r4, #16384	; 0x4000
     69c:	42a3      	cmp	r3, r4
     69e:	d105      	bne.n	6ac <serial_irq_set_internal+0xa4>
     6a0:	4c0a      	ldr	r4, [pc, #40]	; (6cc <serial_irq_set_internal+0xc4>)
     6a2:	2605      	movs	r6, #5
     6a4:	e7bf      	b.n	626 <serial_irq_set_internal+0x1e>
     6a6:	4c0a      	ldr	r4, [pc, #40]	; (6d0 <serial_irq_set_internal+0xc8>)
     6a8:	2606      	movs	r6, #6
     6aa:	e7bc      	b.n	626 <serial_irq_set_internal+0x1e>
     6ac:	2400      	movs	r4, #0
     6ae:	4626      	mov	r6, r4
     6b0:	e7b9      	b.n	626 <serial_irq_set_internal+0x1e>
     6b2:	bf00      	nop
     6b4:	40010000 	andmi	r0, r1, r0
     6b8:	40098000 	andmi	r8, r9, r0
     6bc:	00000739 	andeq	r0, r0, r9, lsr r7
     6c0:	1000027c 	andne	r0, r0, ip, ror r2
     6c4:	e000e100 	and	lr, r0, r0, lsl #2
     6c8:	000005a5 	andeq	r0, r0, r5, lsr #11
     6cc:	000006d5 	ldrdeq	r0, [r0], -r5
     6d0:	000007a5 	andeq	r0, r0, r5, lsr #15

000006d4 <uart0_irq>:
     6d4:	b508      	push	{r3, lr}
     6d6:	4a15      	ldr	r2, [pc, #84]	; (72c <uart0_irq+0x58>)
     6d8:	6893      	ldr	r3, [r2, #8]
     6da:	f3c3 0342 	ubfx	r3, r3, #1, #3
     6de:	2b01      	cmp	r3, #1
     6e0:	d01d      	beq.n	71e <uart0_irq+0x4a>
     6e2:	2b02      	cmp	r3, #2
     6e4:	d118      	bne.n	718 <uart0_irq+0x44>
     6e6:	4b12      	ldr	r3, [pc, #72]	; (730 <uart0_irq+0x5c>)
     6e8:	6859      	ldr	r1, [r3, #4]
     6ea:	3101      	adds	r1, #1
     6ec:	d009      	beq.n	702 <uart0_irq+0x2e>
     6ee:	6919      	ldr	r1, [r3, #16]
     6f0:	6898      	ldr	r0, [r3, #8]
     6f2:	6008      	str	r0, [r1, #0]
     6f4:	f893 1036 	ldrb.w	r1, [r3, #54]	; 0x36
     6f8:	b919      	cbnz	r1, 702 <uart0_irq+0x2e>
     6fa:	6851      	ldr	r1, [r2, #4]
     6fc:	f021 0101 	bic.w	r1, r1, #1
     700:	6051      	str	r1, [r2, #4]
     702:	6818      	ldr	r0, [r3, #0]
     704:	4b0a      	ldr	r3, [pc, #40]	; (730 <uart0_irq+0x5c>)
     706:	b148      	cbz	r0, 71c <uart0_irq+0x48>
     708:	f893 3036 	ldrb.w	r3, [r3, #54]	; 0x36
     70c:	b12b      	cbz	r3, 71a <uart0_irq+0x46>
     70e:	2100      	movs	r1, #0
     710:	4a08      	ldr	r2, [pc, #32]	; (734 <uart0_irq+0x60>)
     712:	6813      	ldr	r3, [r2, #0]
     714:	4798      	blx	r3
     716:	bd08      	pop	{r3, pc}
     718:	bd08      	pop	{r3, pc}
     71a:	bd08      	pop	{r3, pc}
     71c:	bd08      	pop	{r3, pc}
     71e:	4a04      	ldr	r2, [pc, #16]	; (730 <uart0_irq+0x5c>)
     720:	6810      	ldr	r0, [r2, #0]
     722:	2800      	cmp	r0, #0
     724:	d0f9      	beq.n	71a <uart0_irq+0x46>
     726:	4619      	mov	r1, r3
     728:	e7f2      	b.n	710 <uart0_irq+0x3c>
     72a:	bf00      	nop
     72c:	4000c000 	andmi	ip, r0, r0
     730:	1000027c 	andne	r0, r0, ip, ror r2
     734:	10000278 	andne	r0, r0, r8, ror r2

00000738 <uart3_irq>:
     738:	b508      	push	{r3, lr}
     73a:	4a17      	ldr	r2, [pc, #92]	; (798 <uart3_irq+0x60>)
     73c:	6893      	ldr	r3, [r2, #8]
     73e:	f3c3 0342 	ubfx	r3, r3, #1, #3
     742:	2b01      	cmp	r3, #1
     744:	d021      	beq.n	78a <uart3_irq+0x52>
     746:	2b02      	cmp	r3, #2
     748:	d11c      	bne.n	784 <uart3_irq+0x4c>
     74a:	4b14      	ldr	r3, [pc, #80]	; (79c <uart3_irq+0x64>)
     74c:	f8d3 10ac 	ldr.w	r1, [r3, #172]	; 0xac
     750:	3101      	adds	r1, #1
     752:	d00b      	beq.n	76c <uart3_irq+0x34>
     754:	f8d3 10b8 	ldr.w	r1, [r3, #184]	; 0xb8
     758:	f8d3 00b0 	ldr.w	r0, [r3, #176]	; 0xb0
     75c:	6008      	str	r0, [r1, #0]
     75e:	f893 10de 	ldrb.w	r1, [r3, #222]	; 0xde
     762:	b919      	cbnz	r1, 76c <uart3_irq+0x34>
     764:	6851      	ldr	r1, [r2, #4]
     766:	f021 0101 	bic.w	r1, r1, #1
     76a:	6051      	str	r1, [r2, #4]
     76c:	f8d3 00a8 	ldr.w	r0, [r3, #168]	; 0xa8
     770:	4b0a      	ldr	r3, [pc, #40]	; (79c <uart3_irq+0x64>)
     772:	b148      	cbz	r0, 788 <uart3_irq+0x50>
     774:	f893 30de 	ldrb.w	r3, [r3, #222]	; 0xde
     778:	b12b      	cbz	r3, 786 <uart3_irq+0x4e>
     77a:	2100      	movs	r1, #0
     77c:	4a08      	ldr	r2, [pc, #32]	; (7a0 <uart3_irq+0x68>)
     77e:	6813      	ldr	r3, [r2, #0]
     780:	4798      	blx	r3
     782:	bd08      	pop	{r3, pc}
     784:	bd08      	pop	{r3, pc}
     786:	bd08      	pop	{r3, pc}
     788:	bd08      	pop	{r3, pc}
     78a:	4a04      	ldr	r2, [pc, #16]	; (79c <uart3_irq+0x64>)
     78c:	f8d2 00a8 	ldr.w	r0, [r2, #168]	; 0xa8
     790:	2800      	cmp	r0, #0
     792:	d0f8      	beq.n	786 <uart3_irq+0x4e>
     794:	4619      	mov	r1, r3
     796:	e7f1      	b.n	77c <uart3_irq+0x44>
     798:	4009c000 	andmi	ip, r9, r0
     79c:	1000027c 	andne	r0, r0, ip, ror r2
     7a0:	10000278 	andne	r0, r0, r8, ror r2

000007a4 <uart1_irq>:
     7a4:	b508      	push	{r3, lr}
     7a6:	4a15      	ldr	r2, [pc, #84]	; (7fc <uart1_irq+0x58>)
     7a8:	6893      	ldr	r3, [r2, #8]
     7aa:	f3c3 0342 	ubfx	r3, r3, #1, #3
     7ae:	2b01      	cmp	r3, #1
     7b0:	d01d      	beq.n	7ee <uart1_irq+0x4a>
     7b2:	2b02      	cmp	r3, #2
     7b4:	d118      	bne.n	7e8 <uart1_irq+0x44>
     7b6:	4b12      	ldr	r3, [pc, #72]	; (800 <Heap_Size>)
     7b8:	6bd9      	ldr	r1, [r3, #60]	; 0x3c
     7ba:	3101      	adds	r1, #1
     7bc:	d009      	beq.n	7d2 <uart1_irq+0x2e>
     7be:	6c99      	ldr	r1, [r3, #72]	; 0x48
     7c0:	6c18      	ldr	r0, [r3, #64]	; 0x40
     7c2:	6008      	str	r0, [r1, #0]
     7c4:	f893 106e 	ldrb.w	r1, [r3, #110]	; 0x6e
     7c8:	b919      	cbnz	r1, 7d2 <uart1_irq+0x2e>
     7ca:	6851      	ldr	r1, [r2, #4]
     7cc:	f021 0101 	bic.w	r1, r1, #1
     7d0:	6051      	str	r1, [r2, #4]
     7d2:	6b98      	ldr	r0, [r3, #56]	; 0x38
     7d4:	4b0a      	ldr	r3, [pc, #40]	; (800 <Heap_Size>)
     7d6:	b148      	cbz	r0, 7ec <uart1_irq+0x48>
     7d8:	f893 306e 	ldrb.w	r3, [r3, #110]	; 0x6e
     7dc:	b12b      	cbz	r3, 7ea <uart1_irq+0x46>
     7de:	2100      	movs	r1, #0
     7e0:	4a08      	ldr	r2, [pc, #32]	; (804 <Heap_Size+0x4>)
     7e2:	6813      	ldr	r3, [r2, #0]
     7e4:	4798      	blx	r3
     7e6:	bd08      	pop	{r3, pc}
     7e8:	bd08      	pop	{r3, pc}
     7ea:	bd08      	pop	{r3, pc}
     7ec:	bd08      	pop	{r3, pc}
     7ee:	4a04      	ldr	r2, [pc, #16]	; (800 <Heap_Size>)
     7f0:	6b90      	ldr	r0, [r2, #56]	; 0x38
     7f2:	2800      	cmp	r0, #0
     7f4:	d0f9      	beq.n	7ea <uart1_irq+0x46>
     7f6:	4619      	mov	r1, r3
     7f8:	e7f2      	b.n	7e0 <uart1_irq+0x3c>
     7fa:	bf00      	nop
     7fc:	40010000 	andmi	r0, r1, r0
     800:	1000027c 	andne	r0, r0, ip, ror r2
     804:	10000278 	andne	r0, r0, r8, ror r2

00000808 <serial_baud>:
     808:	e92d 4ff0 	stmdb	sp!, {r4, r5, r6, r7, r8, r9, sl, fp, lr}
     80c:	6803      	ldr	r3, [r0, #0]
     80e:	4a88      	ldr	r2, [pc, #544]	; (a30 <serial_baud+0x228>)
     810:	b08d      	sub	sp, #52	; 0x34
     812:	4293      	cmp	r3, r2
     814:	9009      	str	r0, [sp, #36]	; 0x24
     816:	468b      	mov	fp, r1
     818:	f300 80f0 	bgt.w	9fc <serial_baud+0x1f4>
     81c:	4a85      	ldr	r2, [pc, #532]	; (a34 <serial_baud+0x22c>)
     81e:	4293      	cmp	r3, r2
     820:	f000 80f7 	beq.w	a12 <serial_baud+0x20a>
     824:	f340 80d7 	ble.w	9d6 <serial_baud+0x1ce>
     828:	4a83      	ldr	r2, [pc, #524]	; (a38 <serial_baud+0x230>)
     82a:	4293      	cmp	r3, r2
     82c:	f000 809f 	beq.w	96e <serial_baud+0x166>
     830:	f502 4280 	add.w	r2, r2, #16384	; 0x4000
     834:	4293      	cmp	r3, r2
     836:	d10c      	bne.n	852 <serial_baud+0x4a>
     838:	4a80      	ldr	r2, [pc, #512]	; (a3c <serial_baud+0x234>)
     83a:	f8d2 11ac 	ldr.w	r1, [r2, #428]	; 0x1ac
     83e:	f421 2140 	bic.w	r1, r1, #786432	; 0xc0000
     842:	f8c2 11ac 	str.w	r1, [r2, #428]	; 0x1ac
     846:	f8d2 11ac 	ldr.w	r1, [r2, #428]	; 0x1ac
     84a:	f441 2180 	orr.w	r1, r1, #262144	; 0x40000
     84e:	f8c2 11ac 	str.w	r1, [r2, #428]	; 0x1ac
     852:	497b      	ldr	r1, [pc, #492]	; (a40 <serial_baud+0x238>)
     854:	ea4f 120b 	mov.w	r2, fp, lsl #4
     858:	6809      	ldr	r1, [r1, #0]
     85a:	9108      	str	r1, [sp, #32]
     85c:	9c08      	ldr	r4, [sp, #32]
     85e:	fbb1 f1f2 	udiv	r1, r1, r2
     862:	fb02 4211 	mls	r2, r2, r1, r4
     866:	b289      	uxth	r1, r1
     868:	9104      	str	r1, [sp, #16]
     86a:	2a00      	cmp	r2, #0
     86c:	f000 80b1 	beq.w	9d2 <serial_baud+0x1ca>
     870:	0061      	lsls	r1, r4, #1
     872:	00a2      	lsls	r2, r4, #2
     874:	2301      	movs	r3, #1
     876:	9402      	str	r4, [sp, #8]
     878:	2400      	movs	r4, #0
     87a:	910b      	str	r1, [sp, #44]	; 0x2c
     87c:	920a      	str	r2, [sp, #40]	; 0x28
     87e:	9301      	str	r3, [sp, #4]
     880:	460f      	mov	r7, r1
     882:	9203      	str	r2, [sp, #12]
     884:	9306      	str	r3, [sp, #24]
     886:	f8cd b01c 	str.w	fp, [sp, #28]
     88a:	465e      	mov	r6, fp
     88c:	9405      	str	r4, [sp, #20]
     88e:	f8dd a01c 	ldr.w	sl, [sp, #28]
     892:	9901      	ldr	r1, [sp, #4]
     894:	f04f 0800 	mov.w	r8, #0
     898:	46d1      	mov	r9, sl
     89a:	b2cd      	uxtb	r5, r1
     89c:	46da      	mov	sl, fp
     89e:	46c3      	mov	fp, r8
     8a0:	2f00      	cmp	r7, #0
     8a2:	db79      	blt.n	998 <serial_baud+0x190>
     8a4:	9903      	ldr	r1, [sp, #12]
     8a6:	f8dd e004 	ldr.w	lr, [sp, #4]
     8aa:	fbb1 f4f9 	udiv	r4, r1, r9
     8ae:	0964      	lsrs	r4, r4, #5
     8b0:	3401      	adds	r4, #1
     8b2:	f3c4 044f 	ubfx	r4, r4, #1, #16
     8b6:	44de      	add	lr, fp
     8b8:	2c00      	cmp	r4, #0
     8ba:	d166      	bne.n	98a <serial_baud+0x182>
     8bc:	2401      	movs	r4, #1
     8be:	f1b8 0f00 	cmp.w	r8, #0
     8c2:	d167      	bne.n	994 <serial_baud+0x18c>
     8c4:	fb04 f00e 	mul.w	r0, r4, lr
     8c8:	9a02      	ldr	r2, [sp, #8]
     8ca:	00c0      	lsls	r0, r0, #3
     8cc:	fbb2 f0f0 	udiv	r0, r2, r0
     8d0:	3001      	adds	r0, #1
     8d2:	ebca 0050 	rsb	r0, sl, r0, lsr #1
     8d6:	f000 fe85 	bl	15e4 <abs>
     8da:	42b0      	cmp	r0, r6
     8dc:	da06      	bge.n	8ec <serial_baud+0xe4>
     8de:	4550      	cmp	r0, sl
     8e0:	d064      	beq.n	9ac <serial_baud+0x1a4>
     8e2:	4606      	mov	r6, r0
     8e4:	f8cd 8014 	str.w	r8, [sp, #20]
     8e8:	9404      	str	r4, [sp, #16]
     8ea:	9506      	str	r5, [sp, #24]
     8ec:	f10b 0b01 	add.w	fp, fp, #1
     8f0:	fa5f f88b 	uxtb.w	r8, fp
     8f4:	4545      	cmp	r5, r8
     8f6:	44d1      	add	r9, sl
     8f8:	d8d2      	bhi.n	8a0 <serial_baud+0x98>
     8fa:	9c01      	ldr	r4, [sp, #4]
     8fc:	46d3      	mov	fp, sl
     8fe:	2c0f      	cmp	r4, #15
     900:	f04f 0300 	mov.w	r3, #0
     904:	d05d      	beq.n	9c2 <serial_baud+0x1ba>
     906:	9a02      	ldr	r2, [sp, #8]
     908:	9908      	ldr	r1, [sp, #32]
     90a:	9c01      	ldr	r4, [sp, #4]
     90c:	440a      	add	r2, r1
     90e:	990b      	ldr	r1, [sp, #44]	; 0x2c
     910:	3401      	adds	r4, #1
     912:	9202      	str	r2, [sp, #8]
     914:	9401      	str	r4, [sp, #4]
     916:	9a03      	ldr	r2, [sp, #12]
     918:	440f      	add	r7, r1
     91a:	9c0a      	ldr	r4, [sp, #40]	; 0x28
     91c:	9907      	ldr	r1, [sp, #28]
     91e:	4422      	add	r2, r4
     920:	4459      	add	r1, fp
     922:	9203      	str	r2, [sp, #12]
     924:	9107      	str	r1, [sp, #28]
     926:	2b00      	cmp	r3, #0
     928:	d0b1      	beq.n	88e <serial_baud+0x86>
     92a:	9b06      	ldr	r3, [sp, #24]
     92c:	9a05      	ldr	r2, [sp, #20]
     92e:	9c09      	ldr	r4, [sp, #36]	; 0x24
     930:	ea42 1003 	orr.w	r0, r2, r3, lsl #4
     934:	6823      	ldr	r3, [r4, #0]
     936:	b2c0      	uxtb	r0, r0
     938:	7b19      	ldrb	r1, [r3, #12]
     93a:	9c04      	ldr	r4, [sp, #16]
     93c:	f041 0180 	orr.w	r1, r1, #128	; 0x80
     940:	f3c4 2207 	ubfx	r2, r4, #8, #8
     944:	9c09      	ldr	r4, [sp, #36]	; 0x24
     946:	7319      	strb	r1, [r3, #12]
     948:	6823      	ldr	r3, [r4, #0]
     94a:	9904      	ldr	r1, [sp, #16]
     94c:	711a      	strb	r2, [r3, #4]
     94e:	6823      	ldr	r3, [r4, #0]
     950:	fa5f fb81 	uxtb.w	fp, r1
     954:	f883 b000 	strb.w	fp, [r3]
     958:	6823      	ldr	r3, [r4, #0]
     95a:	f883 0028 	strb.w	r0, [r3, #40]	; 0x28
     95e:	6823      	ldr	r3, [r4, #0]
     960:	7b1a      	ldrb	r2, [r3, #12]
     962:	f002 027f 	and.w	r2, r2, #127	; 0x7f
     966:	731a      	strb	r2, [r3, #12]
     968:	b00d      	add	sp, #52	; 0x34
     96a:	e8bd 8ff0 	ldmia.w	sp!, {r4, r5, r6, r7, r8, r9, sl, fp, pc}
     96e:	4a33      	ldr	r2, [pc, #204]	; (a3c <serial_baud+0x234>)
     970:	f8d2 11ac 	ldr.w	r1, [r2, #428]	; 0x1ac
     974:	f421 3140 	bic.w	r1, r1, #196608	; 0x30000
     978:	f8c2 11ac 	str.w	r1, [r2, #428]	; 0x1ac
     97c:	f8d2 11ac 	ldr.w	r1, [r2, #428]	; 0x1ac
     980:	f441 3180 	orr.w	r1, r1, #65536	; 0x10000
     984:	f8c2 11ac 	str.w	r1, [r2, #428]	; 0x1ac
     988:	e763      	b.n	852 <serial_baud+0x4a>
     98a:	f1b8 0f00 	cmp.w	r8, #0
     98e:	d099      	beq.n	8c4 <serial_baud+0xbc>
     990:	2c01      	cmp	r4, #1
     992:	d897      	bhi.n	8c4 <serial_baud+0xbc>
     994:	2402      	movs	r4, #2
     996:	e795      	b.n	8c4 <serial_baud+0xbc>
     998:	fbb7 f4f9 	udiv	r4, r7, r9
     99c:	0924      	lsrs	r4, r4, #4
     99e:	f8dd e004 	ldr.w	lr, [sp, #4]
     9a2:	3401      	adds	r4, #1
     9a4:	f3c4 044f 	ubfx	r4, r4, #1, #16
     9a8:	44de      	add	lr, fp
     9aa:	e785      	b.n	8b8 <serial_baud+0xb0>
     9ac:	9404      	str	r4, [sp, #16]
     9ae:	9c01      	ldr	r4, [sp, #4]
     9b0:	46d3      	mov	fp, sl
     9b2:	2c0f      	cmp	r4, #15
     9b4:	9506      	str	r5, [sp, #24]
     9b6:	f8cd 8014 	str.w	r8, [sp, #20]
     9ba:	4656      	mov	r6, sl
     9bc:	f04f 0301 	mov.w	r3, #1
     9c0:	d1a1      	bne.n	906 <serial_baud+0xfe>
     9c2:	9905      	ldr	r1, [sp, #20]
     9c4:	9a06      	ldr	r2, [sp, #24]
     9c6:	9c09      	ldr	r4, [sp, #36]	; 0x24
     9c8:	ea41 1002 	orr.w	r0, r1, r2, lsl #4
     9cc:	b2c0      	uxtb	r0, r0
     9ce:	6823      	ldr	r3, [r4, #0]
     9d0:	e7b2      	b.n	938 <serial_baud+0x130>
     9d2:	2010      	movs	r0, #16
     9d4:	e7b0      	b.n	938 <serial_baud+0x130>
     9d6:	f5a2 4280 	sub.w	r2, r2, #16384	; 0x4000
     9da:	4293      	cmp	r3, r2
     9dc:	f47f af39 	bne.w	852 <serial_baud+0x4a>
     9e0:	4a16      	ldr	r2, [pc, #88]	; (a3c <serial_baud+0x234>)
     9e2:	f8d2 11a8 	ldr.w	r1, [r2, #424]	; 0x1a8
     9e6:	f021 01c0 	bic.w	r1, r1, #192	; 0xc0
     9ea:	f8c2 11a8 	str.w	r1, [r2, #424]	; 0x1a8
     9ee:	f8d2 11a8 	ldr.w	r1, [r2, #424]	; 0x1a8
     9f2:	f041 0140 	orr.w	r1, r1, #64	; 0x40
     9f6:	f8c2 11a8 	str.w	r1, [r2, #424]	; 0x1a8
     9fa:	e72a      	b.n	852 <serial_baud+0x4a>
     9fc:	229b      	movs	r2, #155	; 0x9b
     9fe:	4811      	ldr	r0, [pc, #68]	; (a44 <serial_baud+0x23c>)
     a00:	4911      	ldr	r1, [pc, #68]	; (a48 <serial_baud+0x240>)
     a02:	f000 fa43 	bl	e8c <mbed_assert_internal>
     a06:	9c09      	ldr	r4, [sp, #36]	; 0x24
     a08:	4a0a      	ldr	r2, [pc, #40]	; (a34 <serial_baud+0x22c>)
     a0a:	6823      	ldr	r3, [r4, #0]
     a0c:	4293      	cmp	r3, r2
     a0e:	f47f af09 	bne.w	824 <serial_baud+0x1c>
     a12:	4a0a      	ldr	r2, [pc, #40]	; (a3c <serial_baud+0x234>)
     a14:	f8d2 11a8 	ldr.w	r1, [r2, #424]	; 0x1a8
     a18:	f421 7140 	bic.w	r1, r1, #768	; 0x300
     a1c:	f8c2 11a8 	str.w	r1, [r2, #424]	; 0x1a8
     a20:	f8d2 11a8 	ldr.w	r1, [r2, #424]	; 0x1a8
     a24:	f441 7180 	orr.w	r1, r1, #256	; 0x100
     a28:	f8c2 11a8 	str.w	r1, [r2, #424]	; 0x1a8
     a2c:	e711      	b.n	852 <serial_baud+0x4a>
     a2e:	bf00      	nop
     a30:	4009c000 	andmi	ip, r9, r0
     a34:	40010000 	andmi	r0, r1, r0
     a38:	40098000 	andmi	r8, r9, r0
     a3c:	400fc000 	andmi	ip, pc, r0
     a40:	100000cc 	andne	r0, r0, ip, asr #1
     a44:	0000255c 	andeq	r2, r0, ip, asr r5
     a48:	00002578 	andeq	r2, r0, r8, ror r5

00000a4c <serial_format>:
     a4c:	b5f8      	push	{r3, r4, r5, r6, r7, lr}
     a4e:	1e5d      	subs	r5, r3, #1
     a50:	2d01      	cmp	r5, #1
     a52:	4607      	mov	r7, r0
     a54:	460c      	mov	r4, r1
     a56:	4616      	mov	r6, r2
     a58:	d904      	bls.n	a64 <serial_format+0x18>
     a5a:	4815      	ldr	r0, [pc, #84]	; (ab0 <serial_format+0x64>)
     a5c:	4915      	ldr	r1, [pc, #84]	; (ab4 <serial_format+0x68>)
     a5e:	22fb      	movs	r2, #251	; 0xfb
     a60:	f000 fa14 	bl	e8c <mbed_assert_internal>
     a64:	3c05      	subs	r4, #5
     a66:	2c03      	cmp	r4, #3
     a68:	d81c      	bhi.n	aa4 <serial_format+0x58>
     a6a:	2e04      	cmp	r6, #4
     a6c:	d814      	bhi.n	a98 <serial_format+0x4c>
     a6e:	3e01      	subs	r6, #1
     a70:	b2f6      	uxtb	r6, r6
     a72:	2e03      	cmp	r6, #3
     a74:	d80d      	bhi.n	a92 <serial_format+0x46>
     a76:	4b10      	ldr	r3, [pc, #64]	; (ab8 <serial_format+0x6c>)
     a78:	2208      	movs	r2, #8
     a7a:	f853 3026 	ldr.w	r3, [r3, r6, lsl #2]
     a7e:	011b      	lsls	r3, r3, #4
     a80:	b2db      	uxtb	r3, r3
     a82:	ea44 0485 	orr.w	r4, r4, r5, lsl #2
     a86:	4314      	orrs	r4, r2
     a88:	4323      	orrs	r3, r4
     a8a:	683a      	ldr	r2, [r7, #0]
     a8c:	b2db      	uxtb	r3, r3
     a8e:	7313      	strb	r3, [r2, #12]
     a90:	bdf8      	pop	{r3, r4, r5, r6, r7, pc}
     a92:	2300      	movs	r3, #0
     a94:	461a      	mov	r2, r3
     a96:	e7f4      	b.n	a82 <serial_format+0x36>
     a98:	4808      	ldr	r0, [pc, #32]	; (abc <serial_format+0x70>)
     a9a:	4906      	ldr	r1, [pc, #24]	; (ab4 <serial_format+0x68>)
     a9c:	22fe      	movs	r2, #254	; 0xfe
     a9e:	f000 f9f5 	bl	e8c <mbed_assert_internal>
     aa2:	e7e4      	b.n	a6e <serial_format+0x22>
     aa4:	4806      	ldr	r0, [pc, #24]	; (ac0 <serial_format+0x74>)
     aa6:	4903      	ldr	r1, [pc, #12]	; (ab4 <serial_format+0x68>)
     aa8:	22fc      	movs	r2, #252	; 0xfc
     aaa:	f000 f9ef 	bl	e8c <mbed_assert_internal>
     aae:	e7dc      	b.n	a6a <serial_format+0x1e>
     ab0:	000025e0 	andeq	r2, r0, r0, ror #11
     ab4:	00002578 	andeq	r2, r0, r8, ror r5
     ab8:	000024e0 	andeq	r2, r0, r0, ror #9
     abc:	0000262c 	andeq	r2, r0, ip, lsr #12
     ac0:	00002608 	andeq	r2, r0, r8, lsl #12

00000ac4 <serial_getc>:
     ac4:	b500      	push	{lr}
     ac6:	6802      	ldr	r2, [r0, #0]
     ac8:	7d13      	ldrb	r3, [r2, #20]
     aca:	07db      	lsls	r3, r3, #31
     acc:	d5fc      	bpl.n	ac8 <serial_getc+0x4>
     ace:	6843      	ldr	r3, [r0, #4]
     ad0:	4909      	ldr	r1, [pc, #36]	; (af8 <serial_getc+0x34>)
     ad2:	ebc3 03c3 	rsb	r3, r3, r3, lsl #3
     ad6:	eb01 03c3 	add.w	r3, r1, r3, lsl #3
     ada:	6859      	ldr	r1, [r3, #4]
     adc:	7810      	ldrb	r0, [r2, #0]
     ade:	3101      	adds	r1, #1
     ae0:	b2c0      	uxtb	r0, r0
     ae2:	d007      	beq.n	af4 <serial_getc+0x30>
     ae4:	6959      	ldr	r1, [r3, #20]
     ae6:	3304      	adds	r3, #4
     ae8:	685b      	ldr	r3, [r3, #4]
     aea:	600b      	str	r3, [r1, #0]
     aec:	6853      	ldr	r3, [r2, #4]
     aee:	f043 0301 	orr.w	r3, r3, #1
     af2:	6053      	str	r3, [r2, #4]
     af4:	f85d fb04 	ldr.w	pc, [sp], #4
     af8:	1000027c 	andne	r0, r0, ip, ror r2

00000afc <serial_writable>:
     afc:	b538      	push	{r3, r4, r5, lr}
     afe:	6843      	ldr	r3, [r0, #4]
     b00:	4a18      	ldr	r2, [pc, #96]	; (b64 <serial_writable+0x68>)
     b02:	ebc3 03c3 	rsb	r3, r3, r3, lsl #3
     b06:	00db      	lsls	r3, r3, #3
     b08:	18d1      	adds	r1, r2, r3
     b0a:	4604      	mov	r4, r0
     b0c:	69c8      	ldr	r0, [r1, #28]
     b0e:	3001      	adds	r0, #1
     b10:	d011      	beq.n	b36 <serial_writable+0x3a>
     b12:	3318      	adds	r3, #24
     b14:	441a      	add	r2, r3
     b16:	6853      	ldr	r3, [r2, #4]
     b18:	1d15      	adds	r5, r2, #4
     b1a:	3301      	adds	r3, #1
     b1c:	d016      	beq.n	b4c <serial_writable+0x50>
     b1e:	696a      	ldr	r2, [r5, #20]
     b20:	686b      	ldr	r3, [r5, #4]
     b22:	6812      	ldr	r2, [r2, #0]
     b24:	421a      	tst	r2, r3
     b26:	d104      	bne.n	b32 <serial_writable+0x36>
     b28:	6823      	ldr	r3, [r4, #0]
     b2a:	7d18      	ldrb	r0, [r3, #20]
     b2c:	f3c0 1080 	ubfx	r0, r0, #6, #1
     b30:	bd38      	pop	{r3, r4, r5, pc}
     b32:	2000      	movs	r0, #0
     b34:	bd38      	pop	{r3, r4, r5, pc}
     b36:	6823      	ldr	r3, [r4, #0]
     b38:	7d1b      	ldrb	r3, [r3, #20]
     b3a:	069b      	lsls	r3, r3, #26
     b3c:	d40c      	bmi.n	b58 <serial_writable+0x5c>
     b3e:	f891 0034 	ldrb.w	r0, [r1, #52]	; 0x34
     b42:	280f      	cmp	r0, #15
     b44:	bf8c      	ite	hi
     b46:	2000      	movhi	r0, #0
     b48:	2001      	movls	r0, #1
     b4a:	bd38      	pop	{r3, r4, r5, pc}
     b4c:	4806      	ldr	r0, [pc, #24]	; (b68 <serial_writable+0x6c>)
     b4e:	4907      	ldr	r1, [pc, #28]	; (b6c <serial_writable+0x70>)
     b50:	222c      	movs	r2, #44	; 0x2c
     b52:	f000 f99b 	bl	e8c <mbed_assert_internal>
     b56:	e7e2      	b.n	b1e <serial_writable+0x22>
     b58:	2300      	movs	r3, #0
     b5a:	f881 3034 	strb.w	r3, [r1, #52]	; 0x34
     b5e:	2001      	movs	r0, #1
     b60:	bd38      	pop	{r3, r4, r5, pc}
     b62:	bf00      	nop
     b64:	1000027c 	andne	r0, r0, ip, ror r2
     b68:	0000243c 	andeq	r2, r0, ip, lsr r4
     b6c:	000026b0 			; <UNDEFINED> instruction: 0x000026b0

00000b70 <serial_putc>:
     b70:	b538      	push	{r3, r4, r5, lr}
     b72:	4604      	mov	r4, r0
     b74:	460d      	mov	r5, r1
     b76:	4620      	mov	r0, r4
     b78:	f7ff ffc0 	bl	afc <serial_writable>
     b7c:	2800      	cmp	r0, #0
     b7e:	d0fa      	beq.n	b76 <serial_putc+0x6>
     b80:	6823      	ldr	r3, [r4, #0]
     b82:	b2ed      	uxtb	r5, r5
     b84:	701d      	strb	r5, [r3, #0]
     b86:	6862      	ldr	r2, [r4, #4]
     b88:	4b05      	ldr	r3, [pc, #20]	; (ba0 <serial_putc+0x30>)
     b8a:	ebc2 02c2 	rsb	r2, r2, r2, lsl #3
     b8e:	eb03 03c2 	add.w	r3, r3, r2, lsl #3
     b92:	f893 2034 	ldrb.w	r2, [r3, #52]	; 0x34
     b96:	3201      	adds	r2, #1
     b98:	f883 2034 	strb.w	r2, [r3, #52]	; 0x34
     b9c:	bd38      	pop	{r3, r4, r5, pc}
     b9e:	bf00      	nop
     ba0:	1000027c 	andne	r0, r0, ip, ror r2

00000ba4 <serial_set_flow_control>:
     ba4:	e92d 4ff0 	stmdb	sp!, {r4, r5, r6, r7, r8, r9, sl, fp, lr}
     ba8:	4604      	mov	r4, r0
     baa:	4d45      	ldr	r5, [pc, #276]	; (cc0 <Stack_Size+0xc0>)
     bac:	6800      	ldr	r0, [r0, #0]
     bae:	b083      	sub	sp, #12
     bb0:	42a8      	cmp	r0, r5
     bb2:	460e      	mov	r6, r1
     bb4:	4690      	mov	r8, r2
     bb6:	4699      	mov	r9, r3
     bb8:	d043      	beq.n	c42 <Stack_Size+0x42>
     bba:	6865      	ldr	r5, [r4, #4]
     bbc:	2300      	movs	r3, #0
     bbe:	9301      	str	r3, [sp, #4]
     bc0:	462a      	mov	r2, r5
     bc2:	f8df a108 	ldr.w	sl, [pc, #264]	; ccc <Stack_Size+0xcc>
     bc6:	00ef      	lsls	r7, r5, #3
     bc8:	ebc2 02c2 	rsb	r2, r2, r2, lsl #3
     bcc:	1b78      	subs	r0, r7, r5
     bce:	f04f 0e00 	mov.w	lr, #0
     bd2:	eb0a 00c0 	add.w	r0, sl, r0, lsl #3
     bd6:	eb0a 0cc2 	add.w	ip, sl, r2, lsl #3
     bda:	f04f 33ff 	mov.w	r3, #4294967295	; 0xffffffff
     bde:	61c3      	str	r3, [r0, #28]
     be0:	6043      	str	r3, [r0, #4]
     be2:	4671      	mov	r1, lr
     be4:	4672      	mov	r2, lr
     be6:	4620      	mov	r0, r4
     be8:	f88c e035 	strb.w	lr, [ip, #53]	; 0x35
     bec:	f7ff fd0c 	bl	608 <serial_irq_set_internal>
     bf0:	b916      	cbnz	r6, bf8 <serial_set_flow_control+0x54>
     bf2:	b003      	add	sp, #12
     bf4:	e8bd 8ff0 	ldmia.w	sp!, {r4, r5, r6, r7, r8, r9, sl, fp, pc}
     bf8:	4932      	ldr	r1, [pc, #200]	; (cc4 <Stack_Size+0xc4>)
     bfa:	4640      	mov	r0, r8
     bfc:	f000 f9fe 	bl	ffc <pinmap_find_peripheral>
     c00:	4931      	ldr	r1, [pc, #196]	; (cc8 <Stack_Size+0xc8>)
     c02:	4683      	mov	fp, r0
     c04:	4648      	mov	r0, r9
     c06:	f000 f9f9 	bl	ffc <pinmap_find_peripheral>
     c0a:	1eb2      	subs	r2, r6, #2
     c0c:	2a01      	cmp	r2, #1
     c0e:	d938      	bls.n	c82 <Stack_Size+0x82>
     c10:	2e01      	cmp	r6, #1
     c12:	d1ee      	bne.n	bf2 <serial_set_flow_control+0x4e>
     c14:	f1b8 3fff 	cmp.w	r8, #4294967295	; 0xffffffff
     c18:	d0eb      	beq.n	bf2 <serial_set_flow_control+0x4e>
     c1a:	4929      	ldr	r1, [pc, #164]	; (cc0 <Stack_Size+0xc0>)
     c1c:	6822      	ldr	r2, [r4, #0]
     c1e:	2007      	movs	r0, #7
     c20:	458b      	cmp	fp, r1
     c22:	7210      	strb	r0, [r2, #8]
     c24:	d115      	bne.n	c52 <Stack_Size+0x52>
     c26:	9b01      	ldr	r3, [sp, #4]
     c28:	b19b      	cbz	r3, c52 <Stack_Size+0x52>
     c2a:	7c1b      	ldrb	r3, [r3, #16]
     c2c:	9a01      	ldr	r2, [sp, #4]
     c2e:	4925      	ldr	r1, [pc, #148]	; (cc4 <Stack_Size+0xc4>)
     c30:	f043 0340 	orr.w	r3, r3, #64	; 0x40
     c34:	4640      	mov	r0, r8
     c36:	7413      	strb	r3, [r2, #16]
     c38:	b003      	add	sp, #12
     c3a:	e8bd 4ff0 	ldmia.w	sp!, {r4, r5, r6, r7, r8, r9, sl, fp, lr}
     c3e:	f000 b9ab 	b.w	f98 <pinmap_pinout>
     c42:	7c03      	ldrb	r3, [r0, #16]
     c44:	6865      	ldr	r5, [r4, #4]
     c46:	f003 033f 	and.w	r3, r3, #63	; 0x3f
     c4a:	7403      	strb	r3, [r0, #16]
     c4c:	6862      	ldr	r2, [r4, #4]
     c4e:	9001      	str	r0, [sp, #4]
     c50:	e7b7      	b.n	bc2 <serial_set_flow_control+0x1e>
     c52:	1b7d      	subs	r5, r7, r5
     c54:	eb0a 00c5 	add.w	r0, sl, r5, lsl #3
     c58:	4641      	mov	r1, r8
     c5a:	3004      	adds	r0, #4
     c5c:	2200      	movs	r2, #0
     c5e:	f000 f971 	bl	f44 <gpio_init_out_ex>
     c62:	6862      	ldr	r2, [r4, #4]
     c64:	2501      	movs	r5, #1
     c66:	ebc2 02c2 	rsb	r2, r2, r2, lsl #3
     c6a:	eb0a 03c2 	add.w	r3, sl, r2, lsl #3
     c6e:	4620      	mov	r0, r4
     c70:	462a      	mov	r2, r5
     c72:	2100      	movs	r1, #0
     c74:	f883 5035 	strb.w	r5, [r3, #53]	; 0x35
     c78:	b003      	add	sp, #12
     c7a:	e8bd 4ff0 	ldmia.w	sp!, {r4, r5, r6, r7, r8, r9, sl, fp, lr}
     c7e:	f7ff bcc3 	b.w	608 <serial_irq_set_internal>
     c82:	f1b9 3fff 	cmp.w	r9, #4294967295	; 0xffffffff
     c86:	d009      	beq.n	c9c <Stack_Size+0x9c>
     c88:	4a0d      	ldr	r2, [pc, #52]	; (cc0 <Stack_Size+0xc0>)
     c8a:	4290      	cmp	r0, r2
     c8c:	d00c      	beq.n	ca8 <Stack_Size+0xa8>
     c8e:	1b78      	subs	r0, r7, r5
     c90:	eb0a 00c0 	add.w	r0, sl, r0, lsl #3
     c94:	4649      	mov	r1, r9
     c96:	301c      	adds	r0, #28
     c98:	f000 f920 	bl	edc <gpio_init_in>
     c9c:	2e03      	cmp	r6, #3
     c9e:	d1a8      	bne.n	bf2 <serial_set_flow_control+0x4e>
     ca0:	f1b8 3fff 	cmp.w	r8, #4294967295	; 0xffffffff
     ca4:	d1b9      	bne.n	c1a <Stack_Size+0x1a>
     ca6:	e7a4      	b.n	bf2 <serial_set_flow_control+0x4e>
     ca8:	9b01      	ldr	r3, [sp, #4]
     caa:	2b00      	cmp	r3, #0
     cac:	d0ef      	beq.n	c8e <Stack_Size+0x8e>
     cae:	7c1a      	ldrb	r2, [r3, #16]
     cb0:	4648      	mov	r0, r9
     cb2:	f042 0280 	orr.w	r2, r2, #128	; 0x80
     cb6:	741a      	strb	r2, [r3, #16]
     cb8:	4903      	ldr	r1, [pc, #12]	; (cc8 <Stack_Size+0xc8>)
     cba:	f000 f96d 	bl	f98 <pinmap_pinout>
     cbe:	e7ed      	b.n	c9c <Stack_Size+0x9c>
     cc0:	40010000 	andmi	r0, r1, r0
     cc4:	000024bc 			; <UNDEFINED> instruction: 0x000024bc
     cc8:	00002798 	muleq	r0, r8, r7
     ccc:	1000027c 	andne	r0, r0, ip, ror r2

00000cd0 <serial_init>:
     cd0:	e92d 47f0 	stmdb	sp!, {r4, r5, r6, r7, r8, r9, sl, lr}
     cd4:	460f      	mov	r7, r1
     cd6:	4605      	mov	r5, r0
     cd8:	4608      	mov	r0, r1
     cda:	4961      	ldr	r1, [pc, #388]	; (e60 <serial_init+0x190>)
     cdc:	4616      	mov	r6, r2
     cde:	f000 f99b 	bl	1018 <pinmap_peripheral>
     ce2:	4960      	ldr	r1, [pc, #384]	; (e64 <serial_init+0x194>)
     ce4:	4604      	mov	r4, r0
     ce6:	4630      	mov	r0, r6
     ce8:	f000 f996 	bl	1018 <pinmap_peripheral>
     cec:	4601      	mov	r1, r0
     cee:	4620      	mov	r0, r4
     cf0:	f000 f972 	bl	fd8 <pinmap_merge>
     cf4:	1c41      	adds	r1, r0, #1
     cf6:	4604      	mov	r4, r0
     cf8:	f000 80ab 	beq.w	e52 <serial_init+0x182>
     cfc:	4b5a      	ldr	r3, [pc, #360]	; (e68 <serial_init+0x198>)
     cfe:	6028      	str	r0, [r5, #0]
     d00:	4298      	cmp	r0, r3
     d02:	f000 8083 	beq.w	e0c <serial_init+0x13c>
     d06:	d953      	bls.n	db0 <serial_init+0xe0>
     d08:	4b58      	ldr	r3, [pc, #352]	; (e6c <serial_init+0x19c>)
     d0a:	4298      	cmp	r0, r3
     d0c:	d076      	beq.n	dfc <serial_init+0x12c>
     d0e:	f503 4380 	add.w	r3, r3, #16384	; 0x4000
     d12:	4298      	cmp	r0, r3
     d14:	d106      	bne.n	d24 <serial_init+0x54>
     d16:	4b56      	ldr	r3, [pc, #344]	; (e70 <serial_init+0x1a0>)
     d18:	f8d3 20c4 	ldr.w	r2, [r3, #196]	; 0xc4
     d1c:	f042 7200 	orr.w	r2, r2, #33554432	; 0x2000000
     d20:	f8c3 20c4 	str.w	r2, [r3, #196]	; 0xc4
     d24:	f04f 0901 	mov.w	r9, #1
     d28:	f884 9008 	strb.w	r9, [r4, #8]
     d2c:	682b      	ldr	r3, [r5, #0]
     d2e:	f04f 0800 	mov.w	r8, #0
     d32:	f8c3 8004 	str.w	r8, [r3, #4]
     d36:	4628      	mov	r0, r5
     d38:	f44f 5116 	mov.w	r1, #9600	; 0x2580
     d3c:	f7ff fd64 	bl	808 <serial_baud>
     d40:	4642      	mov	r2, r8
     d42:	464b      	mov	r3, r9
     d44:	4628      	mov	r0, r5
     d46:	2108      	movs	r1, #8
     d48:	f7ff fe80 	bl	a4c <serial_format>
     d4c:	4638      	mov	r0, r7
     d4e:	4944      	ldr	r1, [pc, #272]	; (e60 <serial_init+0x190>)
     d50:	f000 f922 	bl	f98 <pinmap_pinout>
     d54:	4630      	mov	r0, r6
     d56:	4943      	ldr	r1, [pc, #268]	; (e64 <serial_init+0x194>)
     d58:	f000 f91e 	bl	f98 <pinmap_pinout>
     d5c:	1c7a      	adds	r2, r7, #1
     d5e:	d003      	beq.n	d68 <serial_init+0x98>
     d60:	4638      	mov	r0, r7
     d62:	4641      	mov	r1, r8
     d64:	f000 fa0e 	bl	1184 <pin_mode>
     d68:	1c73      	adds	r3, r6, #1
     d6a:	d003      	beq.n	d74 <serial_init+0xa4>
     d6c:	4630      	mov	r0, r6
     d6e:	2100      	movs	r1, #0
     d70:	f000 fa08 	bl	1184 <pin_mode>
     d74:	4b3c      	ldr	r3, [pc, #240]	; (e68 <serial_init+0x198>)
     d76:	429c      	cmp	r4, r3
     d78:	d050      	beq.n	e1c <serial_init+0x14c>
     d7a:	d925      	bls.n	dc8 <serial_init+0xf8>
     d7c:	4b3b      	ldr	r3, [pc, #236]	; (e6c <serial_init+0x19c>)
     d7e:	429c      	cmp	r4, r3
     d80:	d064      	beq.n	e4c <serial_init+0x17c>
     d82:	f503 4380 	add.w	r3, r3, #16384	; 0x4000
     d86:	429c      	cmp	r4, r3
     d88:	d14b      	bne.n	e22 <serial_init+0x152>
     d8a:	2303      	movs	r3, #3
     d8c:	606b      	str	r3, [r5, #4]
     d8e:	4939      	ldr	r1, [pc, #228]	; (e74 <serial_init+0x1a4>)
     d90:	ebc3 03c3 	rsb	r3, r3, r3, lsl #3
     d94:	f04f 34ff 	mov.w	r4, #4294967295	; 0xffffffff
     d98:	4628      	mov	r0, r5
     d9a:	eb01 05c3 	add.w	r5, r1, r3, lsl #3
     d9e:	4622      	mov	r2, r4
     da0:	4623      	mov	r3, r4
     da2:	606c      	str	r4, [r5, #4]
     da4:	61ec      	str	r4, [r5, #28]
     da6:	2100      	movs	r1, #0
     da8:	e8bd 47f0 	ldmia.w	sp!, {r4, r5, r6, r7, r8, r9, sl, lr}
     dac:	f7ff befa 	b.w	ba4 <serial_set_flow_control>
     db0:	f5a3 4380 	sub.w	r3, r3, #16384	; 0x4000
     db4:	4298      	cmp	r0, r3
     db6:	d1b5      	bne.n	d24 <serial_init+0x54>
     db8:	4b2d      	ldr	r3, [pc, #180]	; (e70 <serial_init+0x1a0>)
     dba:	f8d3 20c4 	ldr.w	r2, [r3, #196]	; 0xc4
     dbe:	f042 0208 	orr.w	r2, r2, #8
     dc2:	f8c3 20c4 	str.w	r2, [r3, #196]	; 0xc4
     dc6:	e7ad      	b.n	d24 <serial_init+0x54>
     dc8:	f5a3 4380 	sub.w	r3, r3, #16384	; 0x4000
     dcc:	429c      	cmp	r4, r3
     dce:	d128      	bne.n	e22 <serial_init+0x152>
     dd0:	4e28      	ldr	r6, [pc, #160]	; (e74 <serial_init+0x1a4>)
     dd2:	f04f 34ff 	mov.w	r4, #4294967295	; 0xffffffff
     dd6:	2100      	movs	r1, #0
     dd8:	6069      	str	r1, [r5, #4]
     dda:	4622      	mov	r2, r4
     ddc:	4623      	mov	r3, r4
     dde:	4628      	mov	r0, r5
     de0:	6074      	str	r4, [r6, #4]
     de2:	61f4      	str	r4, [r6, #28]
     de4:	f7ff fede 	bl	ba4 <serial_set_flow_control>
     de8:	4b23      	ldr	r3, [pc, #140]	; (e78 <serial_init+0x1a8>)
     dea:	2401      	movs	r4, #1
     dec:	4629      	mov	r1, r5
     dee:	601c      	str	r4, [r3, #0]
     df0:	4822      	ldr	r0, [pc, #136]	; (e7c <serial_init+0x1ac>)
     df2:	2208      	movs	r2, #8
     df4:	e8bd 47f0 	ldmia.w	sp!, {r4, r5, r6, r7, r8, r9, sl, lr}
     df8:	f000 bd20 	b.w	183c <memcpy>
     dfc:	4b1c      	ldr	r3, [pc, #112]	; (e70 <serial_init+0x1a0>)
     dfe:	f8d3 20c4 	ldr.w	r2, [r3, #196]	; 0xc4
     e02:	f042 7280 	orr.w	r2, r2, #16777216	; 0x1000000
     e06:	f8c3 20c4 	str.w	r2, [r3, #196]	; 0xc4
     e0a:	e78b      	b.n	d24 <serial_init+0x54>
     e0c:	4b18      	ldr	r3, [pc, #96]	; (e70 <serial_init+0x1a0>)
     e0e:	f8d3 20c4 	ldr.w	r2, [r3, #196]	; 0xc4
     e12:	f042 0210 	orr.w	r2, r2, #16
     e16:	f8c3 20c4 	str.w	r2, [r3, #196]	; 0xc4
     e1a:	e783      	b.n	d24 <serial_init+0x54>
     e1c:	2301      	movs	r3, #1
     e1e:	606b      	str	r3, [r5, #4]
     e20:	e7b5      	b.n	d8e <serial_init+0xbe>
     e22:	686b      	ldr	r3, [r5, #4]
     e24:	4913      	ldr	r1, [pc, #76]	; (e74 <serial_init+0x1a4>)
     e26:	ebc3 03c3 	rsb	r3, r3, r3, lsl #3
     e2a:	f04f 36ff 	mov.w	r6, #4294967295	; 0xffffffff
     e2e:	eb01 07c3 	add.w	r7, r1, r3, lsl #3
     e32:	4632      	mov	r2, r6
     e34:	4633      	mov	r3, r6
     e36:	4628      	mov	r0, r5
     e38:	2100      	movs	r1, #0
     e3a:	607e      	str	r6, [r7, #4]
     e3c:	61fe      	str	r6, [r7, #28]
     e3e:	f7ff feb1 	bl	ba4 <serial_set_flow_control>
     e42:	4b0f      	ldr	r3, [pc, #60]	; (e80 <serial_init+0x1b0>)
     e44:	429c      	cmp	r4, r3
     e46:	d0cf      	beq.n	de8 <serial_init+0x118>
     e48:	e8bd 87f0 	ldmia.w	sp!, {r4, r5, r6, r7, r8, r9, sl, pc}
     e4c:	2302      	movs	r3, #2
     e4e:	606b      	str	r3, [r5, #4]
     e50:	e79d      	b.n	d8e <serial_init+0xbe>
     e52:	480c      	ldr	r0, [pc, #48]	; (e84 <serial_init+0x1b4>)
     e54:	490c      	ldr	r1, [pc, #48]	; (e88 <serial_init+0x1b8>)
     e56:	225c      	movs	r2, #92	; 0x5c
     e58:	f000 f818 	bl	e8c <mbed_assert_internal>
     e5c:	602c      	str	r4, [r5, #0]
     e5e:	e761      	b.n	d24 <serial_init+0x54>
     e60:	0000272c 	andeq	r2, r0, ip, lsr #14
     e64:	000024f0 	strdeq	r2, [r0], -r0
     e68:	40010000 	andmi	r0, r1, r0
     e6c:	40098000 	andmi	r8, r9, r0
     e70:	400fc000 	andmi	ip, pc, r0
     e74:	1000027c 	andne	r0, r0, ip, ror r2
     e78:	10000274 	andne	r0, r0, r4, ror r2
     e7c:	10000370 	andne	r0, r0, r0, ror r3
     e80:	4000c000 	andmi	ip, r0, r0
     e84:	0000271c 	andeq	r2, r0, ip, lsl r7
     e88:	00002578 	andeq	r2, r0, r8, ror r5

00000e8c <mbed_assert_internal>:
     e8c:	b510      	push	{r4, lr}
     e8e:	4b08      	ldr	r3, [pc, #32]	; (eb0 <mbed_assert_internal+0x24>)
     e90:	4604      	mov	r4, r0
     e92:	6818      	ldr	r0, [r3, #0]
     e94:	b082      	sub	sp, #8
     e96:	460b      	mov	r3, r1
     e98:	68c0      	ldr	r0, [r0, #12]
     e9a:	4906      	ldr	r1, [pc, #24]	; (eb4 <mbed_assert_internal+0x28>)
     e9c:	9200      	str	r2, [sp, #0]
     e9e:	4622      	mov	r2, r4
     ea0:	f000 fc68 	bl	1774 <fiprintf>
     ea4:	b002      	add	sp, #8
     ea6:	e8bd 4010 	ldmia.w	sp!, {r4, lr}
     eaa:	f7ff baf5 	b.w	498 <mbed_die>
     eae:	bf00      	nop
     eb0:	10000130 	andne	r0, r0, r0, lsr r1
     eb4:	000027bc 			; <UNDEFINED> instruction: 0x000027bc

00000eb8 <error>:
     eb8:	b40f      	push	{r0, r1, r2, r3}
     eba:	b500      	push	{lr}
     ebc:	4a06      	ldr	r2, [pc, #24]	; (ed8 <error+0x20>)
     ebe:	b083      	sub	sp, #12
     ec0:	ab04      	add	r3, sp, #16
     ec2:	6812      	ldr	r2, [r2, #0]
     ec4:	f853 1b04 	ldr.w	r1, [r3], #4
     ec8:	68d0      	ldr	r0, [r2, #12]
     eca:	461a      	mov	r2, r3
     ecc:	9301      	str	r3, [sp, #4]
     ece:	f000 fe93 	bl	1bf8 <vfiprintf>
     ed2:	2001      	movs	r0, #1
     ed4:	f000 fb90 	bl	15f8 <exit>
     ed8:	10000130 	andne	r0, r0, r0, lsr r1

00000edc <gpio_init_in>:
     edc:	b538      	push	{r3, r4, r5, lr}
     ede:	460d      	mov	r5, r1
     ee0:	4604      	mov	r4, r0
     ee2:	f000 f8e9 	bl	10b8 <gpio_init>
     ee6:	3501      	adds	r5, #1
     ee8:	d009      	beq.n	efe <gpio_init_in+0x22>
     eea:	4620      	mov	r0, r4
     eec:	2100      	movs	r1, #0
     eee:	f000 f8ff 	bl	10f0 <gpio_dir>
     ef2:	4620      	mov	r0, r4
     ef4:	2103      	movs	r1, #3
     ef6:	e8bd 4038 	ldmia.w	sp!, {r3, r4, r5, lr}
     efa:	f000 b8f5 	b.w	10e8 <gpio_mode>
     efe:	bd38      	pop	{r3, r4, r5, pc}

00000f00 <gpio_init_out>:
     f00:	b538      	push	{r3, r4, r5, lr}
     f02:	460d      	mov	r5, r1
     f04:	4604      	mov	r4, r0
     f06:	f000 f8d7 	bl	10b8 <gpio_init>
     f0a:	3501      	adds	r5, #1
     f0c:	d00f      	beq.n	f2e <gpio_init_out+0x2e>
     f0e:	6823      	ldr	r3, [r4, #0]
     f10:	3301      	adds	r3, #1
     f12:	d00d      	beq.n	f30 <gpio_init_out+0x30>
     f14:	6923      	ldr	r3, [r4, #16]
     f16:	6862      	ldr	r2, [r4, #4]
     f18:	4620      	mov	r0, r4
     f1a:	601a      	str	r2, [r3, #0]
     f1c:	2101      	movs	r1, #1
     f1e:	f000 f8e7 	bl	10f0 <gpio_dir>
     f22:	4620      	mov	r0, r4
     f24:	2102      	movs	r1, #2
     f26:	e8bd 4038 	ldmia.w	sp!, {r3, r4, r5, lr}
     f2a:	f000 b8dd 	b.w	10e8 <gpio_mode>
     f2e:	bd38      	pop	{r3, r4, r5, pc}
     f30:	4802      	ldr	r0, [pc, #8]	; (f3c <gpio_init_out+0x3c>)
     f32:	4903      	ldr	r1, [pc, #12]	; (f40 <gpio_init_out+0x40>)
     f34:	2224      	movs	r2, #36	; 0x24
     f36:	f7ff ffa9 	bl	e8c <mbed_assert_internal>
     f3a:	e7eb      	b.n	f14 <gpio_init_out+0x14>
     f3c:	0000243c 	andeq	r2, r0, ip, lsr r4
     f40:	00002454 	andeq	r2, r0, r4, asr r4

00000f44 <gpio_init_out_ex>:
     f44:	b570      	push	{r4, r5, r6, lr}
     f46:	460d      	mov	r5, r1
     f48:	4616      	mov	r6, r2
     f4a:	4604      	mov	r4, r0
     f4c:	f000 f8b4 	bl	10b8 <gpio_init>
     f50:	3501      	adds	r5, #1
     f52:	d014      	beq.n	f7e <gpio_init_out_ex+0x3a>
     f54:	6823      	ldr	r3, [r4, #0]
     f56:	3301      	adds	r3, #1
     f58:	d012      	beq.n	f80 <gpio_init_out_ex+0x3c>
     f5a:	b966      	cbnz	r6, f76 <gpio_init_out_ex+0x32>
     f5c:	6923      	ldr	r3, [r4, #16]
     f5e:	6862      	ldr	r2, [r4, #4]
     f60:	601a      	str	r2, [r3, #0]
     f62:	4620      	mov	r0, r4
     f64:	2101      	movs	r1, #1
     f66:	f000 f8c3 	bl	10f0 <gpio_dir>
     f6a:	4620      	mov	r0, r4
     f6c:	2102      	movs	r1, #2
     f6e:	e8bd 4070 	ldmia.w	sp!, {r4, r5, r6, lr}
     f72:	f000 b8b9 	b.w	10e8 <gpio_mode>
     f76:	68e3      	ldr	r3, [r4, #12]
     f78:	6862      	ldr	r2, [r4, #4]
     f7a:	601a      	str	r2, [r3, #0]
     f7c:	e7f1      	b.n	f62 <gpio_init_out_ex+0x1e>
     f7e:	bd70      	pop	{r4, r5, r6, pc}
     f80:	4803      	ldr	r0, [pc, #12]	; (f90 <gpio_init_out_ex+0x4c>)
     f82:	4904      	ldr	r1, [pc, #16]	; (f94 <gpio_init_out_ex+0x50>)
     f84:	2224      	movs	r2, #36	; 0x24
     f86:	f7ff ff81 	bl	e8c <mbed_assert_internal>
     f8a:	2e00      	cmp	r6, #0
     f8c:	d0e6      	beq.n	f5c <gpio_init_out_ex+0x18>
     f8e:	e7f2      	b.n	f76 <gpio_init_out_ex+0x32>
     f90:	0000243c 	andeq	r2, r0, ip, lsr r4
     f94:	00002454 	andeq	r2, r0, r4, asr r4

00000f98 <pinmap_pinout>:
     f98:	1c43      	adds	r3, r0, #1
     f9a:	b510      	push	{r4, lr}
     f9c:	4604      	mov	r4, r0
     f9e:	d018      	beq.n	fd2 <pinmap_pinout+0x3a>
     fa0:	680b      	ldr	r3, [r1, #0]
     fa2:	1c58      	adds	r0, r3, #1
     fa4:	d104      	bne.n	fb0 <pinmap_pinout+0x18>
     fa6:	e00f      	b.n	fc8 <pinmap_pinout+0x30>
     fa8:	f851 3f0c 	ldr.w	r3, [r1, #12]!
     fac:	1c5a      	adds	r2, r3, #1
     fae:	d00b      	beq.n	fc8 <pinmap_pinout+0x30>
     fb0:	429c      	cmp	r4, r3
     fb2:	d1f9      	bne.n	fa8 <pinmap_pinout+0x10>
     fb4:	4620      	mov	r0, r4
     fb6:	6889      	ldr	r1, [r1, #8]
     fb8:	f000 f8bc 	bl	1134 <pin_function>
     fbc:	4620      	mov	r0, r4
     fbe:	2102      	movs	r1, #2
     fc0:	e8bd 4010 	ldmia.w	sp!, {r4, lr}
     fc4:	f000 b8de 	b.w	1184 <pin_mode>
     fc8:	4802      	ldr	r0, [pc, #8]	; (fd4 <pinmap_pinout+0x3c>)
     fca:	e8bd 4010 	ldmia.w	sp!, {r4, lr}
     fce:	f7ff bf73 	b.w	eb8 <error>
     fd2:	bd10      	pop	{r4, pc}
     fd4:	000027f0 	strdeq	r2, [r0], -r0

00000fd8 <pinmap_merge>:
     fd8:	4288      	cmp	r0, r1
     fda:	b508      	push	{r3, lr}
     fdc:	d00a      	beq.n	ff4 <pinmap_merge+0x1c>
     fde:	1c43      	adds	r3, r0, #1
     fe0:	d007      	beq.n	ff2 <pinmap_merge+0x1a>
     fe2:	3101      	adds	r1, #1
     fe4:	d006      	beq.n	ff4 <pinmap_merge+0x1c>
     fe6:	4804      	ldr	r0, [pc, #16]	; (ff8 <pinmap_merge+0x20>)
     fe8:	f7ff ff66 	bl	eb8 <error>
     fec:	f04f 30ff 	mov.w	r0, #4294967295	; 0xffffffff
     ff0:	bd08      	pop	{r3, pc}
     ff2:	4608      	mov	r0, r1
     ff4:	bd08      	pop	{r3, pc}
     ff6:	bf00      	nop
     ff8:	00002804 	andeq	r2, r0, r4, lsl #16

00000ffc <pinmap_find_peripheral>:
     ffc:	680b      	ldr	r3, [r1, #0]
     ffe:	1c5a      	adds	r2, r3, #1
    1000:	d104      	bne.n	100c <pinmap_find_peripheral+0x10>
    1002:	e007      	b.n	1014 <pinmap_find_peripheral+0x18>
    1004:	f851 3f0c 	ldr.w	r3, [r1, #12]!
    1008:	1c5a      	adds	r2, r3, #1
    100a:	d003      	beq.n	1014 <pinmap_find_peripheral+0x18>
    100c:	4283      	cmp	r3, r0
    100e:	d1f9      	bne.n	1004 <pinmap_find_peripheral+0x8>
    1010:	6848      	ldr	r0, [r1, #4]
    1012:	4770      	bx	lr
    1014:	4618      	mov	r0, r3
    1016:	4770      	bx	lr

00001018 <pinmap_peripheral>:
    1018:	b508      	push	{r3, lr}
    101a:	1c43      	adds	r3, r0, #1
    101c:	d00c      	beq.n	1038 <pinmap_peripheral+0x20>
    101e:	680b      	ldr	r3, [r1, #0]
    1020:	1c5a      	adds	r2, r3, #1
    1022:	d104      	bne.n	102e <pinmap_peripheral+0x16>
    1024:	e009      	b.n	103a <pinmap_peripheral+0x22>
    1026:	f851 3f0c 	ldr.w	r3, [r1, #12]!
    102a:	1c5a      	adds	r2, r3, #1
    102c:	d005      	beq.n	103a <pinmap_peripheral+0x22>
    102e:	4298      	cmp	r0, r3
    1030:	d1f9      	bne.n	1026 <pinmap_peripheral+0xe>
    1032:	6848      	ldr	r0, [r1, #4]
    1034:	1c41      	adds	r1, r0, #1
    1036:	d000      	beq.n	103a <pinmap_peripheral+0x22>
    1038:	bd08      	pop	{r3, pc}
    103a:	4803      	ldr	r0, [pc, #12]	; (1048 <pinmap_peripheral+0x30>)
    103c:	f7ff ff3c 	bl	eb8 <error>
    1040:	f04f 30ff 	mov.w	r0, #4294967295	; 0xffffffff
    1044:	e7f8      	b.n	1038 <pinmap_peripheral+0x20>
    1046:	bf00      	nop
    1048:	00002818 	andeq	r2, r0, r8, lsl r8

0000104c <wait_us>:
    104c:	b538      	push	{r3, r4, r5, lr}
    104e:	4605      	mov	r5, r0
    1050:	f000 f908 	bl	1264 <us_ticker_read>
    1054:	4604      	mov	r4, r0
    1056:	f000 f905 	bl	1264 <us_ticker_read>
    105a:	1b00      	subs	r0, r0, r4
    105c:	42a8      	cmp	r0, r5
    105e:	d3fa      	bcc.n	1056 <wait_us+0xa>
    1060:	bd38      	pop	{r3, r4, r5, pc}
    1062:	bf00      	nop

00001064 <wait>:
    1064:	b508      	push	{r3, lr}
    1066:	4904      	ldr	r1, [pc, #16]	; (1078 <wait+0x14>)
    1068:	f000 f946 	bl	12f8 <__aeabi_fmul>
    106c:	f000 fa94 	bl	1598 <__aeabi_f2iz>
    1070:	e8bd 4008 	ldmia.w	sp!, {r3, lr}
    1074:	f7ff bfea 	b.w	104c <wait_us>
    1078:	49742400 	ldmdbmi	r4!, {sl, sp}^

0000107c <wait_ms>:
    107c:	f44f 737a 	mov.w	r3, #1000	; 0x3e8
    1080:	fb03 f000 	mul.w	r0, r3, r0
    1084:	f7ff bfe2 	b.w	104c <wait_us>

00001088 <gpio_set>:
    1088:	1c43      	adds	r3, r0, #1
    108a:	b510      	push	{r4, lr}
    108c:	4604      	mov	r4, r0
    108e:	d008      	beq.n	10a2 <gpio_set+0x1a>
    1090:	4620      	mov	r0, r4
    1092:	2100      	movs	r1, #0
    1094:	f000 f84e 	bl	1134 <pin_function>
    1098:	f004 041f 	and.w	r4, r4, #31
    109c:	2001      	movs	r0, #1
    109e:	40a0      	lsls	r0, r4
    10a0:	bd10      	pop	{r4, pc}
    10a2:	4803      	ldr	r0, [pc, #12]	; (10b0 <gpio_set+0x28>)
    10a4:	4903      	ldr	r1, [pc, #12]	; (10b4 <gpio_set+0x2c>)
    10a6:	2215      	movs	r2, #21
    10a8:	f7ff fef0 	bl	e8c <mbed_assert_internal>
    10ac:	e7f0      	b.n	1090 <gpio_set+0x8>
    10ae:	bf00      	nop
    10b0:	00002838 	andeq	r2, r0, r8, lsr r8
    10b4:	0000284c 	andeq	r2, r0, ip, asr #16

000010b8 <gpio_init>:
    10b8:	b538      	push	{r3, r4, r5, lr}
    10ba:	4604      	mov	r4, r0
    10bc:	1c4b      	adds	r3, r1, #1
    10be:	460d      	mov	r5, r1
    10c0:	6021      	str	r1, [r4, #0]
    10c2:	d00f      	beq.n	10e4 <gpio_init+0x2c>
    10c4:	4608      	mov	r0, r1
    10c6:	f7ff ffdf 	bl	1088 <gpio_set>
    10ca:	f025 051f 	bic.w	r5, r5, #31
    10ce:	f105 0118 	add.w	r1, r5, #24
    10d2:	f105 021c 	add.w	r2, r5, #28
    10d6:	f105 0314 	add.w	r3, r5, #20
    10da:	6060      	str	r0, [r4, #4]
    10dc:	60a5      	str	r5, [r4, #8]
    10de:	60e1      	str	r1, [r4, #12]
    10e0:	6122      	str	r2, [r4, #16]
    10e2:	6163      	str	r3, [r4, #20]
    10e4:	bd38      	pop	{r3, r4, r5, pc}
    10e6:	bf00      	nop

000010e8 <gpio_mode>:
    10e8:	6800      	ldr	r0, [r0, #0]
    10ea:	f000 b84b 	b.w	1184 <pin_mode>
    10ee:	bf00      	nop

000010f0 <gpio_dir>:
    10f0:	b538      	push	{r3, r4, r5, lr}
    10f2:	6803      	ldr	r3, [r0, #0]
    10f4:	4604      	mov	r4, r0
    10f6:	3301      	adds	r3, #1
    10f8:	460d      	mov	r5, r1
    10fa:	d010      	beq.n	111e <gpio_dir+0x2e>
    10fc:	b145      	cbz	r5, 1110 <gpio_dir+0x20>
    10fe:	2d01      	cmp	r5, #1
    1100:	d105      	bne.n	110e <gpio_dir+0x1e>
    1102:	68a3      	ldr	r3, [r4, #8]
    1104:	6862      	ldr	r2, [r4, #4]
    1106:	6819      	ldr	r1, [r3, #0]
    1108:	430a      	orrs	r2, r1
    110a:	601a      	str	r2, [r3, #0]
    110c:	bd38      	pop	{r3, r4, r5, pc}
    110e:	bd38      	pop	{r3, r4, r5, pc}
    1110:	68a3      	ldr	r3, [r4, #8]
    1112:	6861      	ldr	r1, [r4, #4]
    1114:	681a      	ldr	r2, [r3, #0]
    1116:	ea22 0201 	bic.w	r2, r2, r1
    111a:	601a      	str	r2, [r3, #0]
    111c:	bd38      	pop	{r3, r4, r5, pc}
    111e:	4803      	ldr	r0, [pc, #12]	; (112c <gpio_dir+0x3c>)
    1120:	4903      	ldr	r1, [pc, #12]	; (1130 <gpio_dir+0x40>)
    1122:	222c      	movs	r2, #44	; 0x2c
    1124:	f7ff feb2 	bl	e8c <mbed_assert_internal>
    1128:	e7e8      	b.n	10fc <gpio_dir+0xc>
    112a:	bf00      	nop
    112c:	0000243c 	andeq	r2, r0, ip, lsr r4
    1130:	0000284c 	andeq	r2, r0, ip, asr #16

00001134 <pin_function>:
    1134:	b538      	push	{r3, r4, r5, lr}
    1136:	1c43      	adds	r3, r0, #1
    1138:	4604      	mov	r4, r0
    113a:	460d      	mov	r5, r1
    113c:	d017      	beq.n	116e <pin_function+0x3a>
    113e:	f104 4060 	add.w	r0, r4, #3758096384	; 0xe0000000
    1142:	f5a0 201c 	sub.w	r0, r0, #638976	; 0x9c000
    1146:	f000 030f 	and.w	r3, r0, #15
    114a:	005b      	lsls	r3, r3, #1
    114c:	2203      	movs	r2, #3
    114e:	409a      	lsls	r2, r3
    1150:	409d      	lsls	r5, r3
    1152:	0903      	lsrs	r3, r0, #4
    1154:	009b      	lsls	r3, r3, #2
    1156:	f103 4380 	add.w	r3, r3, #1073741824	; 0x40000000
    115a:	f503 3330 	add.w	r3, r3, #180224	; 0x2c000
    115e:	6819      	ldr	r1, [r3, #0]
    1160:	ea21 0202 	bic.w	r2, r1, r2
    1164:	601a      	str	r2, [r3, #0]
    1166:	681a      	ldr	r2, [r3, #0]
    1168:	4315      	orrs	r5, r2
    116a:	601d      	str	r5, [r3, #0]
    116c:	bd38      	pop	{r3, r4, r5, pc}
    116e:	4803      	ldr	r0, [pc, #12]	; (117c <pin_function+0x48>)
    1170:	4903      	ldr	r1, [pc, #12]	; (1180 <pin_function+0x4c>)
    1172:	2215      	movs	r2, #21
    1174:	f7ff fe8a 	bl	e8c <mbed_assert_internal>
    1178:	e7e1      	b.n	113e <pin_function+0xa>
    117a:	bf00      	nop
    117c:	00002838 	andeq	r2, r0, r8, lsr r8
    1180:	000028b4 			; <UNDEFINED> instruction: 0x000028b4

00001184 <pin_mode>:
    1184:	b538      	push	{r3, r4, r5, lr}
    1186:	1c43      	adds	r3, r0, #1
    1188:	4604      	mov	r4, r0
    118a:	460d      	mov	r5, r1
    118c:	d02c      	beq.n	11e8 <pin_mode+0x64>
    118e:	f104 4060 	add.w	r0, r4, #3758096384	; 0xe0000000
    1192:	f5a0 201c 	sub.w	r0, r0, #638976	; 0x9c000
    1196:	f000 041f 	and.w	r4, r0, #31
    119a:	f3c5 0280 	ubfx	r2, r5, #2, #1
    119e:	fa02 f404 	lsl.w	r4, r2, r4
    11a2:	0943      	lsrs	r3, r0, #5
    11a4:	009b      	lsls	r3, r3, #2
    11a6:	f103 4380 	add.w	r3, r3, #1073741824	; 0x40000000
    11aa:	f503 3330 	add.w	r3, r3, #180224	; 0x2c000
    11ae:	6e99      	ldr	r1, [r3, #104]	; 0x68
    11b0:	ea21 0104 	bic.w	r1, r1, r4
    11b4:	6699      	str	r1, [r3, #104]	; 0x68
    11b6:	6e99      	ldr	r1, [r3, #104]	; 0x68
    11b8:	430c      	orrs	r4, r1
    11ba:	669c      	str	r4, [r3, #104]	; 0x68
    11bc:	b99a      	cbnz	r2, 11e6 <pin_mode+0x62>
    11be:	f000 030f 	and.w	r3, r0, #15
    11c2:	005b      	lsls	r3, r3, #1
    11c4:	2203      	movs	r2, #3
    11c6:	409a      	lsls	r2, r3
    11c8:	fa05 f303 	lsl.w	r3, r5, r3
    11cc:	0900      	lsrs	r0, r0, #4
    11ce:	0080      	lsls	r0, r0, #2
    11d0:	f100 4080 	add.w	r0, r0, #1073741824	; 0x40000000
    11d4:	f500 3030 	add.w	r0, r0, #180224	; 0x2c000
    11d8:	6c01      	ldr	r1, [r0, #64]	; 0x40
    11da:	ea21 0202 	bic.w	r2, r1, r2
    11de:	6402      	str	r2, [r0, #64]	; 0x40
    11e0:	6c02      	ldr	r2, [r0, #64]	; 0x40
    11e2:	4313      	orrs	r3, r2
    11e4:	6403      	str	r3, [r0, #64]	; 0x40
    11e6:	bd38      	pop	{r3, r4, r5, pc}
    11e8:	4802      	ldr	r0, [pc, #8]	; (11f4 <pin_mode+0x70>)
    11ea:	4903      	ldr	r1, [pc, #12]	; (11f8 <pin_mode+0x74>)
    11ec:	2220      	movs	r2, #32
    11ee:	f7ff fe4d 	bl	e8c <mbed_assert_internal>
    11f2:	e7cc      	b.n	118e <pin_mode+0xa>
    11f4:	00002838 	andeq	r2, r0, r8, lsr r8
    11f8:	000028b4 			; <UNDEFINED> instruction: 0x000028b4

000011fc <us_ticker_init>:
    11fc:	4a13      	ldr	r2, [pc, #76]	; (124c <us_ticker_init+0x50>)
    11fe:	b538      	push	{r3, r4, r5, lr}
    1200:	6813      	ldr	r3, [r2, #0]
    1202:	bb0b      	cbnz	r3, 1248 <us_ticker_init+0x4c>
    1204:	4912      	ldr	r1, [pc, #72]	; (1250 <us_ticker_init+0x54>)
    1206:	2401      	movs	r4, #1
    1208:	f8d1 50c4 	ldr.w	r5, [r1, #196]	; 0xc4
    120c:	6014      	str	r4, [r2, #0]
    120e:	4a11      	ldr	r2, [pc, #68]	; (1254 <us_ticker_init+0x58>)
    1210:	4811      	ldr	r0, [pc, #68]	; (1258 <us_ticker_init+0x5c>)
    1212:	f445 0500 	orr.w	r5, r5, #8388608	; 0x800000
    1216:	f8c1 50c4 	str.w	r5, [r1, #196]	; 0xc4
    121a:	6713      	str	r3, [r2, #112]	; 0x70
    121c:	6803      	ldr	r3, [r0, #0]
    121e:	f101 7143 	add.w	r1, r1, #51118080	; 0x30c0000
    1222:	f501 51f4 	add.w	r1, r1, #7808	; 0x1e80
    1226:	3103      	adds	r1, #3
    1228:	089b      	lsrs	r3, r3, #2
    122a:	fba1 0303 	umull	r0, r3, r1, r3
    122e:	0c9b      	lsrs	r3, r3, #18
    1230:	3b01      	subs	r3, #1
    1232:	2102      	movs	r1, #2
    1234:	6051      	str	r1, [r2, #4]
    1236:	2004      	movs	r0, #4
    1238:	60d3      	str	r3, [r2, #12]
    123a:	4908      	ldr	r1, [pc, #32]	; (125c <us_ticker_init+0x60>)
    123c:	6054      	str	r4, [r2, #4]
    123e:	f7fe ffd3 	bl	1e8 <NVIC_SetVector>
    1242:	4b07      	ldr	r3, [pc, #28]	; (1260 <us_ticker_init+0x64>)
    1244:	2210      	movs	r2, #16
    1246:	601a      	str	r2, [r3, #0]
    1248:	bd38      	pop	{r3, r4, r5, pc}
    124a:	bf00      	nop
    124c:	1000035c 	andne	r0, r0, ip, asr r3
    1250:	400fc000 	andmi	ip, pc, r0
    1254:	40094000 	andmi	r4, r9, r0
    1258:	100000cc 	andne	r0, r0, ip, asr #1
    125c:	000012b1 			; <UNDEFINED> instruction: 0x000012b1
    1260:	e000e100 	and	lr, r0, r0, lsl #2

00001264 <us_ticker_read>:
    1264:	b508      	push	{r3, lr}
    1266:	4b04      	ldr	r3, [pc, #16]	; (1278 <us_ticker_read+0x14>)
    1268:	681b      	ldr	r3, [r3, #0]
    126a:	b90b      	cbnz	r3, 1270 <us_ticker_read+0xc>
    126c:	f7ff ffc6 	bl	11fc <us_ticker_init>
    1270:	4b02      	ldr	r3, [pc, #8]	; (127c <us_ticker_read+0x18>)
    1272:	6898      	ldr	r0, [r3, #8]
    1274:	bd08      	pop	{r3, pc}
    1276:	bf00      	nop
    1278:	1000035c 	andne	r0, r0, ip, asr r3
    127c:	40094000 	andmi	r4, r9, r0

00001280 <us_ticker_set_interrupt>:
    1280:	4b03      	ldr	r3, [pc, #12]	; (1290 <us_ticker_set_interrupt+0x10>)
    1282:	6198      	str	r0, [r3, #24]
    1284:	695a      	ldr	r2, [r3, #20]
    1286:	f042 0201 	orr.w	r2, r2, #1
    128a:	615a      	str	r2, [r3, #20]
    128c:	4770      	bx	lr
    128e:	bf00      	nop
    1290:	40094000 	andmi	r4, r9, r0

00001294 <us_ticker_disable_interrupt>:
    1294:	4b02      	ldr	r3, [pc, #8]	; (12a0 <us_ticker_disable_interrupt+0xc>)
    1296:	695a      	ldr	r2, [r3, #20]
    1298:	f022 0201 	bic.w	r2, r2, #1
    129c:	615a      	str	r2, [r3, #20]
    129e:	4770      	bx	lr
    12a0:	40094000 	andmi	r4, r9, r0

000012a4 <us_ticker_clear_interrupt>:
    12a4:	4b01      	ldr	r3, [pc, #4]	; (12ac <us_ticker_clear_interrupt+0x8>)
    12a6:	2201      	movs	r2, #1
    12a8:	601a      	str	r2, [r3, #0]
    12aa:	4770      	bx	lr
    12ac:	40094000 	andmi	r4, r9, r0

000012b0 <us_ticker_irq_handler>:
    12b0:	b570      	push	{r4, r5, r6, lr}
    12b2:	f7ff fff7 	bl	12a4 <us_ticker_clear_interrupt>
    12b6:	4c0e      	ldr	r4, [pc, #56]	; (12f0 <us_ticker_irq_handler+0x40>)
    12b8:	4e0e      	ldr	r6, [pc, #56]	; (12f4 <us_ticker_irq_handler+0x44>)
    12ba:	6823      	ldr	r3, [r4, #0]
    12bc:	b173      	cbz	r3, 12dc <us_ticker_irq_handler+0x2c>
    12be:	681d      	ldr	r5, [r3, #0]
    12c0:	f7ff ffd0 	bl	1264 <us_ticker_read>
    12c4:	1a28      	subs	r0, r5, r0
    12c6:	2800      	cmp	r0, #0
    12c8:	dc0c      	bgt.n	12e4 <us_ticker_irq_handler+0x34>
    12ca:	6821      	ldr	r1, [r4, #0]
    12cc:	6832      	ldr	r2, [r6, #0]
    12ce:	688b      	ldr	r3, [r1, #8]
    12d0:	6023      	str	r3, [r4, #0]
    12d2:	2a00      	cmp	r2, #0
    12d4:	d0f2      	beq.n	12bc <us_ticker_irq_handler+0xc>
    12d6:	6848      	ldr	r0, [r1, #4]
    12d8:	4790      	blx	r2
    12da:	e7ee      	b.n	12ba <us_ticker_irq_handler+0xa>
    12dc:	e8bd 4070 	ldmia.w	sp!, {r4, r5, r6, lr}
    12e0:	f7ff bfd8 	b.w	1294 <us_ticker_disable_interrupt>
    12e4:	6823      	ldr	r3, [r4, #0]
    12e6:	e8bd 4070 	ldmia.w	sp!, {r4, r5, r6, lr}
    12ea:	6818      	ldr	r0, [r3, #0]
    12ec:	f7ff bfc8 	b.w	1280 <us_ticker_set_interrupt>
    12f0:	10000360 	andne	r0, r0, r0, ror #6
    12f4:	10000364 	andne	r0, r0, r4, ror #6

000012f8 <__aeabi_fmul>:
    12f8:	f04f 0cff 	mov.w	ip, #255	; 0xff
    12fc:	ea1c 52d0 	ands.w	r2, ip, r0, lsr #23
    1300:	bf1e      	ittt	ne
    1302:	ea1c 53d1 	andsne.w	r3, ip, r1, lsr #23
    1306:	ea92 0f0c 	teqne	r2, ip
    130a:	ea93 0f0c 	teqne	r3, ip
    130e:	d06f      	beq.n	13f0 <__aeabi_fmul+0xf8>
    1310:	441a      	add	r2, r3
    1312:	ea80 0c01 	eor.w	ip, r0, r1
    1316:	0240      	lsls	r0, r0, #9
    1318:	bf18      	it	ne
    131a:	ea5f 2141 	movsne.w	r1, r1, lsl #9
    131e:	d01e      	beq.n	135e <__aeabi_fmul+0x66>
    1320:	f04f 6300 	mov.w	r3, #134217728	; 0x8000000
    1324:	ea43 1050 	orr.w	r0, r3, r0, lsr #5
    1328:	ea43 1151 	orr.w	r1, r3, r1, lsr #5
    132c:	fba0 3101 	umull	r3, r1, r0, r1
    1330:	f00c 4000 	and.w	r0, ip, #2147483648	; 0x80000000
    1334:	f5b1 0f00 	cmp.w	r1, #8388608	; 0x800000
    1338:	bf3e      	ittt	cc
    133a:	0049      	lslcc	r1, r1, #1
    133c:	ea41 71d3 	orrcc.w	r1, r1, r3, lsr #31
    1340:	005b      	lslcc	r3, r3, #1
    1342:	ea40 0001 	orr.w	r0, r0, r1
    1346:	f162 027f 	sbc.w	r2, r2, #127	; 0x7f
    134a:	2afd      	cmp	r2, #253	; 0xfd
    134c:	d81d      	bhi.n	138a <__aeabi_fmul+0x92>
    134e:	f1b3 4f00 	cmp.w	r3, #2147483648	; 0x80000000
    1352:	eb40 50c2 	adc.w	r0, r0, r2, lsl #23
    1356:	bf08      	it	eq
    1358:	f020 0001 	biceq.w	r0, r0, #1
    135c:	4770      	bx	lr
    135e:	f090 0f00 	teq	r0, #0
    1362:	f00c 4c00 	and.w	ip, ip, #2147483648	; 0x80000000
    1366:	bf08      	it	eq
    1368:	0249      	lsleq	r1, r1, #9
    136a:	ea4c 2050 	orr.w	r0, ip, r0, lsr #9
    136e:	ea40 2051 	orr.w	r0, r0, r1, lsr #9
    1372:	3a7f      	subs	r2, #127	; 0x7f
    1374:	bfc2      	ittt	gt
    1376:	f1d2 03ff 	rsbsgt	r3, r2, #255	; 0xff
    137a:	ea40 50c2 	orrgt.w	r0, r0, r2, lsl #23
    137e:	4770      	bxgt	lr
    1380:	f440 0000 	orr.w	r0, r0, #8388608	; 0x800000
    1384:	f04f 0300 	mov.w	r3, #0
    1388:	3a01      	subs	r2, #1
    138a:	dc5d      	bgt.n	1448 <__aeabi_fmul+0x150>
    138c:	f112 0f19 	cmn.w	r2, #25
    1390:	bfdc      	itt	le
    1392:	f000 4000 	andle.w	r0, r0, #2147483648	; 0x80000000
    1396:	4770      	bxle	lr
    1398:	f1c2 0200 	rsb	r2, r2, #0
    139c:	0041      	lsls	r1, r0, #1
    139e:	fa21 f102 	lsr.w	r1, r1, r2
    13a2:	f1c2 0220 	rsb	r2, r2, #32
    13a6:	fa00 fc02 	lsl.w	ip, r0, r2
    13aa:	ea5f 0031 	movs.w	r0, r1, rrx
    13ae:	f140 0000 	adc.w	r0, r0, #0
    13b2:	ea53 034c 	orrs.w	r3, r3, ip, lsl #1
    13b6:	bf08      	it	eq
    13b8:	ea20 70dc 	biceq.w	r0, r0, ip, lsr #31
    13bc:	4770      	bx	lr
    13be:	f092 0f00 	teq	r2, #0
    13c2:	f000 4c00 	and.w	ip, r0, #2147483648	; 0x80000000
    13c6:	bf02      	ittt	eq
    13c8:	0040      	lsleq	r0, r0, #1
    13ca:	f410 0f00 	tsteq.w	r0, #8388608	; 0x800000
    13ce:	3a01      	subeq	r2, #1
    13d0:	d0f9      	beq.n	13c6 <__aeabi_fmul+0xce>
    13d2:	ea40 000c 	orr.w	r0, r0, ip
    13d6:	f093 0f00 	teq	r3, #0
    13da:	f001 4c00 	and.w	ip, r1, #2147483648	; 0x80000000
    13de:	bf02      	ittt	eq
    13e0:	0049      	lsleq	r1, r1, #1
    13e2:	f411 0f00 	tsteq.w	r1, #8388608	; 0x800000
    13e6:	3b01      	subeq	r3, #1
    13e8:	d0f9      	beq.n	13de <__aeabi_fmul+0xe6>
    13ea:	ea41 010c 	orr.w	r1, r1, ip
    13ee:	e78f      	b.n	1310 <__aeabi_fmul+0x18>
    13f0:	ea0c 53d1 	and.w	r3, ip, r1, lsr #23
    13f4:	ea92 0f0c 	teq	r2, ip
    13f8:	bf18      	it	ne
    13fa:	ea93 0f0c 	teqne	r3, ip
    13fe:	d00a      	beq.n	1416 <__aeabi_fmul+0x11e>
    1400:	f030 4c00 	bics.w	ip, r0, #2147483648	; 0x80000000
    1404:	bf18      	it	ne
    1406:	f031 4c00 	bicsne.w	ip, r1, #2147483648	; 0x80000000
    140a:	d1d8      	bne.n	13be <__aeabi_fmul+0xc6>
    140c:	ea80 0001 	eor.w	r0, r0, r1
    1410:	f000 4000 	and.w	r0, r0, #2147483648	; 0x80000000
    1414:	4770      	bx	lr
    1416:	f090 0f00 	teq	r0, #0
    141a:	bf17      	itett	ne
    141c:	f090 4f00 	teqne	r0, #2147483648	; 0x80000000
    1420:	4608      	moveq	r0, r1
    1422:	f091 0f00 	teqne	r1, #0
    1426:	f091 4f00 	teqne	r1, #2147483648	; 0x80000000
    142a:	d014      	beq.n	1456 <__aeabi_fmul+0x15e>
    142c:	ea92 0f0c 	teq	r2, ip
    1430:	d101      	bne.n	1436 <__aeabi_fmul+0x13e>
    1432:	0242      	lsls	r2, r0, #9
    1434:	d10f      	bne.n	1456 <__aeabi_fmul+0x15e>
    1436:	ea93 0f0c 	teq	r3, ip
    143a:	d103      	bne.n	1444 <__aeabi_fmul+0x14c>
    143c:	024b      	lsls	r3, r1, #9
    143e:	bf18      	it	ne
    1440:	4608      	movne	r0, r1
    1442:	d108      	bne.n	1456 <__aeabi_fmul+0x15e>
    1444:	ea80 0001 	eor.w	r0, r0, r1
    1448:	f000 4000 	and.w	r0, r0, #2147483648	; 0x80000000
    144c:	f040 40fe 	orr.w	r0, r0, #2130706432	; 0x7f000000
    1450:	f440 0000 	orr.w	r0, r0, #8388608	; 0x800000
    1454:	4770      	bx	lr
    1456:	f040 40fe 	orr.w	r0, r0, #2130706432	; 0x7f000000
    145a:	f440 0040 	orr.w	r0, r0, #12582912	; 0xc00000
    145e:	4770      	bx	lr

00001460 <__aeabi_fdiv>:
    1460:	f04f 0cff 	mov.w	ip, #255	; 0xff
    1464:	ea1c 52d0 	ands.w	r2, ip, r0, lsr #23
    1468:	bf1e      	ittt	ne
    146a:	ea1c 53d1 	andsne.w	r3, ip, r1, lsr #23
    146e:	ea92 0f0c 	teqne	r2, ip
    1472:	ea93 0f0c 	teqne	r3, ip
    1476:	d069      	beq.n	154c <__aeabi_fdiv+0xec>
    1478:	eba2 0203 	sub.w	r2, r2, r3
    147c:	ea80 0c01 	eor.w	ip, r0, r1
    1480:	0249      	lsls	r1, r1, #9
    1482:	ea4f 2040 	mov.w	r0, r0, lsl #9
    1486:	d037      	beq.n	14f8 <__aeabi_fdiv+0x98>
    1488:	f04f 5380 	mov.w	r3, #268435456	; 0x10000000
    148c:	ea43 1111 	orr.w	r1, r3, r1, lsr #4
    1490:	ea43 1310 	orr.w	r3, r3, r0, lsr #4
    1494:	f00c 4000 	and.w	r0, ip, #2147483648	; 0x80000000
    1498:	428b      	cmp	r3, r1
    149a:	bf38      	it	cc
    149c:	005b      	lslcc	r3, r3, #1
    149e:	f142 027d 	adc.w	r2, r2, #125	; 0x7d
    14a2:	f44f 0c00 	mov.w	ip, #8388608	; 0x800000
    14a6:	428b      	cmp	r3, r1
    14a8:	bf24      	itt	cs
    14aa:	1a5b      	subcs	r3, r3, r1
    14ac:	ea40 000c 	orrcs.w	r0, r0, ip
    14b0:	ebb3 0f51 	cmp.w	r3, r1, lsr #1
    14b4:	bf24      	itt	cs
    14b6:	eba3 0351 	subcs.w	r3, r3, r1, lsr #1
    14ba:	ea40 005c 	orrcs.w	r0, r0, ip, lsr #1
    14be:	ebb3 0f91 	cmp.w	r3, r1, lsr #2
    14c2:	bf24      	itt	cs
    14c4:	eba3 0391 	subcs.w	r3, r3, r1, lsr #2
    14c8:	ea40 009c 	orrcs.w	r0, r0, ip, lsr #2
    14cc:	ebb3 0fd1 	cmp.w	r3, r1, lsr #3
    14d0:	bf24      	itt	cs
    14d2:	eba3 03d1 	subcs.w	r3, r3, r1, lsr #3
    14d6:	ea40 00dc 	orrcs.w	r0, r0, ip, lsr #3
    14da:	011b      	lsls	r3, r3, #4
    14dc:	bf18      	it	ne
    14de:	ea5f 1c1c 	movsne.w	ip, ip, lsr #4
    14e2:	d1e0      	bne.n	14a6 <__aeabi_fdiv+0x46>
    14e4:	2afd      	cmp	r2, #253	; 0xfd
    14e6:	f63f af50 	bhi.w	138a <__aeabi_fmul+0x92>
    14ea:	428b      	cmp	r3, r1
    14ec:	eb40 50c2 	adc.w	r0, r0, r2, lsl #23
    14f0:	bf08      	it	eq
    14f2:	f020 0001 	biceq.w	r0, r0, #1
    14f6:	4770      	bx	lr
    14f8:	f00c 4c00 	and.w	ip, ip, #2147483648	; 0x80000000
    14fc:	ea4c 2050 	orr.w	r0, ip, r0, lsr #9
    1500:	327f      	adds	r2, #127	; 0x7f
    1502:	bfc2      	ittt	gt
    1504:	f1d2 03ff 	rsbsgt	r3, r2, #255	; 0xff
    1508:	ea40 50c2 	orrgt.w	r0, r0, r2, lsl #23
    150c:	4770      	bxgt	lr
    150e:	f440 0000 	orr.w	r0, r0, #8388608	; 0x800000
    1512:	f04f 0300 	mov.w	r3, #0
    1516:	3a01      	subs	r2, #1
    1518:	e737      	b.n	138a <__aeabi_fmul+0x92>
    151a:	f092 0f00 	teq	r2, #0
    151e:	f000 4c00 	and.w	ip, r0, #2147483648	; 0x80000000
    1522:	bf02      	ittt	eq
    1524:	0040      	lsleq	r0, r0, #1
    1526:	f410 0f00 	tsteq.w	r0, #8388608	; 0x800000
    152a:	3a01      	subeq	r2, #1
    152c:	d0f9      	beq.n	1522 <__aeabi_fdiv+0xc2>
    152e:	ea40 000c 	orr.w	r0, r0, ip
    1532:	f093 0f00 	teq	r3, #0
    1536:	f001 4c00 	and.w	ip, r1, #2147483648	; 0x80000000
    153a:	bf02      	ittt	eq
    153c:	0049      	lsleq	r1, r1, #1
    153e:	f411 0f00 	tsteq.w	r1, #8388608	; 0x800000
    1542:	3b01      	subeq	r3, #1
    1544:	d0f9      	beq.n	153a <__aeabi_fdiv+0xda>
    1546:	ea41 010c 	orr.w	r1, r1, ip
    154a:	e795      	b.n	1478 <__aeabi_fdiv+0x18>
    154c:	ea0c 53d1 	and.w	r3, ip, r1, lsr #23
    1550:	ea92 0f0c 	teq	r2, ip
    1554:	d108      	bne.n	1568 <__aeabi_fdiv+0x108>
    1556:	0242      	lsls	r2, r0, #9
    1558:	f47f af7d 	bne.w	1456 <__aeabi_fmul+0x15e>
    155c:	ea93 0f0c 	teq	r3, ip
    1560:	f47f af70 	bne.w	1444 <__aeabi_fmul+0x14c>
    1564:	4608      	mov	r0, r1
    1566:	e776      	b.n	1456 <__aeabi_fmul+0x15e>
    1568:	ea93 0f0c 	teq	r3, ip
    156c:	d104      	bne.n	1578 <__aeabi_fdiv+0x118>
    156e:	024b      	lsls	r3, r1, #9
    1570:	f43f af4c 	beq.w	140c <__aeabi_fmul+0x114>
    1574:	4608      	mov	r0, r1
    1576:	e76e      	b.n	1456 <__aeabi_fmul+0x15e>
    1578:	f030 4c00 	bics.w	ip, r0, #2147483648	; 0x80000000
    157c:	bf18      	it	ne
    157e:	f031 4c00 	bicsne.w	ip, r1, #2147483648	; 0x80000000
    1582:	d1ca      	bne.n	151a <__aeabi_fdiv+0xba>
    1584:	f030 4200 	bics.w	r2, r0, #2147483648	; 0x80000000
    1588:	f47f af5c 	bne.w	1444 <__aeabi_fmul+0x14c>
    158c:	f031 4300 	bics.w	r3, r1, #2147483648	; 0x80000000
    1590:	f47f af3c 	bne.w	140c <__aeabi_fmul+0x114>
    1594:	e75f      	b.n	1456 <__aeabi_fmul+0x15e>
    1596:	bf00      	nop

00001598 <__aeabi_f2iz>:
    1598:	ea4f 0240 	mov.w	r2, r0, lsl #1
    159c:	f1b2 4ffe 	cmp.w	r2, #2130706432	; 0x7f000000
    15a0:	d30f      	bcc.n	15c2 <__aeabi_f2iz+0x2a>
    15a2:	f04f 039e 	mov.w	r3, #158	; 0x9e
    15a6:	ebb3 6212 	subs.w	r2, r3, r2, lsr #24
    15aa:	d90d      	bls.n	15c8 <__aeabi_f2iz+0x30>
    15ac:	ea4f 2300 	mov.w	r3, r0, lsl #8
    15b0:	f043 4300 	orr.w	r3, r3, #2147483648	; 0x80000000
    15b4:	f010 4f00 	tst.w	r0, #2147483648	; 0x80000000
    15b8:	fa23 f002 	lsr.w	r0, r3, r2
    15bc:	bf18      	it	ne
    15be:	4240      	negne	r0, r0
    15c0:	4770      	bx	lr
    15c2:	f04f 0000 	mov.w	r0, #0
    15c6:	4770      	bx	lr
    15c8:	f112 0f61 	cmn.w	r2, #97	; 0x61
    15cc:	d101      	bne.n	15d2 <__aeabi_f2iz+0x3a>
    15ce:	0242      	lsls	r2, r0, #9
    15d0:	d105      	bne.n	15de <__aeabi_f2iz+0x46>
    15d2:	f010 4000 	ands.w	r0, r0, #2147483648	; 0x80000000
    15d6:	bf08      	it	eq
    15d8:	f06f 4000 	mvneq.w	r0, #2147483648	; 0x80000000
    15dc:	4770      	bx	lr
    15de:	f04f 0000 	mov.w	r0, #0
    15e2:	4770      	bx	lr

000015e4 <abs>:
    15e4:	2800      	cmp	r0, #0
    15e6:	bfb8      	it	lt
    15e8:	4240      	neglt	r0, r0
    15ea:	4770      	bx	lr

000015ec <__errno>:
    15ec:	4b01      	ldr	r3, [pc, #4]	; (15f4 <__errno+0x8>)
    15ee:	6818      	ldr	r0, [r3, #0]
    15f0:	4770      	bx	lr
    15f2:	bf00      	nop
    15f4:	10000130 	andne	r0, r0, r0, lsr r1

000015f8 <exit>:
    15f8:	b508      	push	{r3, lr}
    15fa:	4b07      	ldr	r3, [pc, #28]	; (1618 <exit+0x20>)
    15fc:	4604      	mov	r4, r0
    15fe:	b113      	cbz	r3, 1606 <exit+0xe>
    1600:	2100      	movs	r1, #0
    1602:	f3af 8000 	nop.w
    1606:	4b05      	ldr	r3, [pc, #20]	; (161c <exit+0x24>)
    1608:	6818      	ldr	r0, [r3, #0]
    160a:	6a83      	ldr	r3, [r0, #40]	; 0x28
    160c:	b103      	cbz	r3, 1610 <exit+0x18>
    160e:	4798      	blx	r3
    1610:	4620      	mov	r0, r4
    1612:	f000 ff05 	bl	2420 <_exit>
    1616:	bf00      	nop
    1618:	00000000 	andeq	r0, r0, r0
    161c:	0000297c 	andeq	r2, r0, ip, ror r9

00001620 <_cleanup_r>:
    1620:	4901      	ldr	r1, [pc, #4]	; (1628 <_cleanup_r+0x8>)
    1622:	f000 b8b9 	b.w	1798 <_fwalk_reent>
    1626:	bf00      	nop
    1628:	000022a9 	andeq	r2, r0, r9, lsr #5

0000162c <std.isra.0>:
    162c:	b510      	push	{r4, lr}
    162e:	4604      	mov	r4, r0
    1630:	2300      	movs	r3, #0
    1632:	6003      	str	r3, [r0, #0]
    1634:	6043      	str	r3, [r0, #4]
    1636:	6083      	str	r3, [r0, #8]
    1638:	8181      	strh	r1, [r0, #12]
    163a:	6643      	str	r3, [r0, #100]	; 0x64
    163c:	81c2      	strh	r2, [r0, #14]
    163e:	6103      	str	r3, [r0, #16]
    1640:	6143      	str	r3, [r0, #20]
    1642:	6183      	str	r3, [r0, #24]
    1644:	4619      	mov	r1, r3
    1646:	305c      	adds	r0, #92	; 0x5c
    1648:	2208      	movs	r2, #8
    164a:	f000 f902 	bl	1852 <memset>
    164e:	4b05      	ldr	r3, [pc, #20]	; (1664 <std.isra.0+0x38>)
    1650:	6224      	str	r4, [r4, #32]
    1652:	6263      	str	r3, [r4, #36]	; 0x24
    1654:	4b04      	ldr	r3, [pc, #16]	; (1668 <std.isra.0+0x3c>)
    1656:	62a3      	str	r3, [r4, #40]	; 0x28
    1658:	4b04      	ldr	r3, [pc, #16]	; (166c <std.isra.0+0x40>)
    165a:	62e3      	str	r3, [r4, #44]	; 0x2c
    165c:	4b04      	ldr	r3, [pc, #16]	; (1670 <std.isra.0+0x44>)
    165e:	6323      	str	r3, [r4, #48]	; 0x30
    1660:	bd10      	pop	{r4, pc}
    1662:	bf00      	nop
    1664:	00001f55 	andeq	r1, r0, r5, asr pc
    1668:	00001f77 	andeq	r1, r0, r7, ror pc
    166c:	00001faf 	andeq	r1, r0, pc, lsr #31
    1670:	00001fd3 	ldrdeq	r1, [r0], -r3

00001674 <__sfmoreglue>:
    1674:	b570      	push	{r4, r5, r6, lr}
    1676:	2368      	movs	r3, #104	; 0x68
    1678:	1e4d      	subs	r5, r1, #1
    167a:	435d      	muls	r5, r3
    167c:	460e      	mov	r6, r1
    167e:	f105 0174 	add.w	r1, r5, #116	; 0x74
    1682:	f000 f933 	bl	18ec <_malloc_r>
    1686:	4604      	mov	r4, r0
    1688:	b140      	cbz	r0, 169c <__sfmoreglue+0x28>
    168a:	2100      	movs	r1, #0
    168c:	e880 0042 	stmia.w	r0, {r1, r6}
    1690:	300c      	adds	r0, #12
    1692:	60a0      	str	r0, [r4, #8]
    1694:	f105 0268 	add.w	r2, r5, #104	; 0x68
    1698:	f000 f8db 	bl	1852 <memset>
    169c:	4620      	mov	r0, r4
    169e:	bd70      	pop	{r4, r5, r6, pc}

000016a0 <__sinit>:
    16a0:	6983      	ldr	r3, [r0, #24]
    16a2:	b510      	push	{r4, lr}
    16a4:	4604      	mov	r4, r0
    16a6:	bb33      	cbnz	r3, 16f6 <__sinit+0x56>
    16a8:	6483      	str	r3, [r0, #72]	; 0x48
    16aa:	64c3      	str	r3, [r0, #76]	; 0x4c
    16ac:	6503      	str	r3, [r0, #80]	; 0x50
    16ae:	4b12      	ldr	r3, [pc, #72]	; (16f8 <__sinit+0x58>)
    16b0:	4a12      	ldr	r2, [pc, #72]	; (16fc <__sinit+0x5c>)
    16b2:	681b      	ldr	r3, [r3, #0]
    16b4:	6282      	str	r2, [r0, #40]	; 0x28
    16b6:	4298      	cmp	r0, r3
    16b8:	bf04      	itt	eq
    16ba:	2301      	moveq	r3, #1
    16bc:	6183      	streq	r3, [r0, #24]
    16be:	f000 f81f 	bl	1700 <__sfp>
    16c2:	6060      	str	r0, [r4, #4]
    16c4:	4620      	mov	r0, r4
    16c6:	f000 f81b 	bl	1700 <__sfp>
    16ca:	60a0      	str	r0, [r4, #8]
    16cc:	4620      	mov	r0, r4
    16ce:	f000 f817 	bl	1700 <__sfp>
    16d2:	2104      	movs	r1, #4
    16d4:	60e0      	str	r0, [r4, #12]
    16d6:	2200      	movs	r2, #0
    16d8:	6860      	ldr	r0, [r4, #4]
    16da:	f7ff ffa7 	bl	162c <std.isra.0>
    16de:	68a0      	ldr	r0, [r4, #8]
    16e0:	2109      	movs	r1, #9
    16e2:	2201      	movs	r2, #1
    16e4:	f7ff ffa2 	bl	162c <std.isra.0>
    16e8:	68e0      	ldr	r0, [r4, #12]
    16ea:	2112      	movs	r1, #18
    16ec:	2202      	movs	r2, #2
    16ee:	f7ff ff9d 	bl	162c <std.isra.0>
    16f2:	2301      	movs	r3, #1
    16f4:	61a3      	str	r3, [r4, #24]
    16f6:	bd10      	pop	{r4, pc}
    16f8:	0000297c 	andeq	r2, r0, ip, ror r9
    16fc:	00001621 	andeq	r1, r0, r1, lsr #12

00001700 <__sfp>:
    1700:	b5f8      	push	{r3, r4, r5, r6, r7, lr}
    1702:	4b1b      	ldr	r3, [pc, #108]	; (1770 <__sfp+0x70>)
    1704:	4607      	mov	r7, r0
    1706:	681e      	ldr	r6, [r3, #0]
    1708:	69b3      	ldr	r3, [r6, #24]
    170a:	b913      	cbnz	r3, 1712 <__sfp+0x12>
    170c:	4630      	mov	r0, r6
    170e:	f7ff ffc7 	bl	16a0 <__sinit>
    1712:	3648      	adds	r6, #72	; 0x48
    1714:	68b4      	ldr	r4, [r6, #8]
    1716:	6873      	ldr	r3, [r6, #4]
    1718:	3b01      	subs	r3, #1
    171a:	d404      	bmi.n	1726 <__sfp+0x26>
    171c:	f9b4 500c 	ldrsh.w	r5, [r4, #12]
    1720:	b175      	cbz	r5, 1740 <__sfp+0x40>
    1722:	3468      	adds	r4, #104	; 0x68
    1724:	e7f8      	b.n	1718 <__sfp+0x18>
    1726:	6833      	ldr	r3, [r6, #0]
    1728:	b92b      	cbnz	r3, 1736 <__sfp+0x36>
    172a:	4638      	mov	r0, r7
    172c:	2104      	movs	r1, #4
    172e:	f7ff ffa1 	bl	1674 <__sfmoreglue>
    1732:	6030      	str	r0, [r6, #0]
    1734:	b108      	cbz	r0, 173a <__sfp+0x3a>
    1736:	6836      	ldr	r6, [r6, #0]
    1738:	e7ec      	b.n	1714 <__sfp+0x14>
    173a:	230c      	movs	r3, #12
    173c:	603b      	str	r3, [r7, #0]
    173e:	bdf8      	pop	{r3, r4, r5, r6, r7, pc}
    1740:	f64f 73ff 	movw	r3, #65535	; 0xffff
    1744:	81e3      	strh	r3, [r4, #14]
    1746:	2301      	movs	r3, #1
    1748:	81a3      	strh	r3, [r4, #12]
    174a:	6665      	str	r5, [r4, #100]	; 0x64
    174c:	6025      	str	r5, [r4, #0]
    174e:	60a5      	str	r5, [r4, #8]
    1750:	6065      	str	r5, [r4, #4]
    1752:	6125      	str	r5, [r4, #16]
    1754:	6165      	str	r5, [r4, #20]
    1756:	61a5      	str	r5, [r4, #24]
    1758:	f104 005c 	add.w	r0, r4, #92	; 0x5c
    175c:	4629      	mov	r1, r5
    175e:	2208      	movs	r2, #8
    1760:	f000 f877 	bl	1852 <memset>
    1764:	6365      	str	r5, [r4, #52]	; 0x34
    1766:	63a5      	str	r5, [r4, #56]	; 0x38
    1768:	64a5      	str	r5, [r4, #72]	; 0x48
    176a:	64e5      	str	r5, [r4, #76]	; 0x4c
    176c:	4620      	mov	r0, r4
    176e:	bdf8      	pop	{r3, r4, r5, r6, r7, pc}
    1770:	0000297c 	andeq	r2, r0, ip, ror r9

00001774 <fiprintf>:
    1774:	b40e      	push	{r1, r2, r3}
    1776:	b503      	push	{r0, r1, lr}
    1778:	4601      	mov	r1, r0
    177a:	ab03      	add	r3, sp, #12
    177c:	4805      	ldr	r0, [pc, #20]	; (1794 <fiprintf+0x20>)
    177e:	f853 2b04 	ldr.w	r2, [r3], #4
    1782:	6800      	ldr	r0, [r0, #0]
    1784:	9301      	str	r3, [sp, #4]
    1786:	f000 f92f 	bl	19e8 <_vfiprintf_r>
    178a:	b002      	add	sp, #8
    178c:	f85d eb04 	ldr.w	lr, [sp], #4
    1790:	b003      	add	sp, #12
    1792:	4770      	bx	lr
    1794:	10000130 	andne	r0, r0, r0, lsr r1

00001798 <_fwalk_reent>:
    1798:	e92d 43f8 	stmdb	sp!, {r3, r4, r5, r6, r7, r8, r9, lr}
    179c:	4680      	mov	r8, r0
    179e:	4689      	mov	r9, r1
    17a0:	f100 0448 	add.w	r4, r0, #72	; 0x48
    17a4:	2600      	movs	r6, #0
    17a6:	b194      	cbz	r4, 17ce <_fwalk_reent+0x36>
    17a8:	68a5      	ldr	r5, [r4, #8]
    17aa:	6867      	ldr	r7, [r4, #4]
    17ac:	3f01      	subs	r7, #1
    17ae:	d40c      	bmi.n	17ca <_fwalk_reent+0x32>
    17b0:	89ab      	ldrh	r3, [r5, #12]
    17b2:	2b01      	cmp	r3, #1
    17b4:	d907      	bls.n	17c6 <_fwalk_reent+0x2e>
    17b6:	f9b5 300e 	ldrsh.w	r3, [r5, #14]
    17ba:	3301      	adds	r3, #1
    17bc:	d003      	beq.n	17c6 <_fwalk_reent+0x2e>
    17be:	4640      	mov	r0, r8
    17c0:	4629      	mov	r1, r5
    17c2:	47c8      	blx	r9
    17c4:	4306      	orrs	r6, r0
    17c6:	3568      	adds	r5, #104	; 0x68
    17c8:	e7f0      	b.n	17ac <_fwalk_reent+0x14>
    17ca:	6824      	ldr	r4, [r4, #0]
    17cc:	e7eb      	b.n	17a6 <_fwalk_reent+0xe>
    17ce:	4630      	mov	r0, r6
    17d0:	e8bd 83f8 	ldmia.w	sp!, {r3, r4, r5, r6, r7, r8, r9, pc}

000017d4 <__libc_init_array>:
    17d4:	4b0e      	ldr	r3, [pc, #56]	; (1810 <__libc_init_array+0x3c>)
    17d6:	b570      	push	{r4, r5, r6, lr}
    17d8:	461e      	mov	r6, r3
    17da:	4c0e      	ldr	r4, [pc, #56]	; (1814 <__libc_init_array+0x40>)
    17dc:	2500      	movs	r5, #0
    17de:	1ae4      	subs	r4, r4, r3
    17e0:	10a4      	asrs	r4, r4, #2
    17e2:	42a5      	cmp	r5, r4
    17e4:	d004      	beq.n	17f0 <__libc_init_array+0x1c>
    17e6:	f856 3025 	ldr.w	r3, [r6, r5, lsl #2]
    17ea:	4798      	blx	r3
    17ec:	3501      	adds	r5, #1
    17ee:	e7f8      	b.n	17e2 <__libc_init_array+0xe>
    17f0:	f000 fe18 	bl	2424 <_init>
    17f4:	4b08      	ldr	r3, [pc, #32]	; (1818 <__libc_init_array+0x44>)
    17f6:	4c09      	ldr	r4, [pc, #36]	; (181c <__libc_init_array+0x48>)
    17f8:	461e      	mov	r6, r3
    17fa:	1ae4      	subs	r4, r4, r3
    17fc:	10a4      	asrs	r4, r4, #2
    17fe:	2500      	movs	r5, #0
    1800:	42a5      	cmp	r5, r4
    1802:	d004      	beq.n	180e <__libc_init_array+0x3a>
    1804:	f856 3025 	ldr.w	r3, [r6, r5, lsl #2]
    1808:	4798      	blx	r3
    180a:	3501      	adds	r5, #1
    180c:	e7f8      	b.n	1800 <__libc_init_array+0x2c>
    180e:	bd70      	pop	{r4, r5, r6, pc}
    1810:	10000134 	andne	r0, r0, r4, lsr r1
    1814:	10000134 	andne	r0, r0, r4, lsr r1
    1818:	10000134 	andne	r0, r0, r4, lsr r1
    181c:	1000013c 	andne	r0, r0, ip, lsr r1

00001820 <memchr>:
    1820:	b510      	push	{r4, lr}
    1822:	b2c9      	uxtb	r1, r1
    1824:	4402      	add	r2, r0
    1826:	4290      	cmp	r0, r2
    1828:	4603      	mov	r3, r0
    182a:	d005      	beq.n	1838 <memchr+0x18>
    182c:	781c      	ldrb	r4, [r3, #0]
    182e:	3001      	adds	r0, #1
    1830:	428c      	cmp	r4, r1
    1832:	d1f8      	bne.n	1826 <memchr+0x6>
    1834:	4618      	mov	r0, r3
    1836:	bd10      	pop	{r4, pc}
    1838:	2000      	movs	r0, #0
    183a:	bd10      	pop	{r4, pc}

0000183c <memcpy>:
    183c:	b510      	push	{r4, lr}
    183e:	1e43      	subs	r3, r0, #1
    1840:	440a      	add	r2, r1
    1842:	4291      	cmp	r1, r2
    1844:	d004      	beq.n	1850 <memcpy+0x14>
    1846:	f811 4b01 	ldrb.w	r4, [r1], #1
    184a:	f803 4f01 	strb.w	r4, [r3, #1]!
    184e:	e7f8      	b.n	1842 <memcpy+0x6>
    1850:	bd10      	pop	{r4, pc}

00001852 <memset>:
    1852:	4603      	mov	r3, r0
    1854:	4402      	add	r2, r0
    1856:	4293      	cmp	r3, r2
    1858:	d002      	beq.n	1860 <memset+0xe>
    185a:	f803 1b01 	strb.w	r1, [r3], #1
    185e:	e7fa      	b.n	1856 <memset+0x4>
    1860:	4770      	bx	lr
	...

00001864 <_free_r>:
    1864:	b530      	push	{r4, r5, lr}
    1866:	2900      	cmp	r1, #0
    1868:	d03c      	beq.n	18e4 <_free_r+0x80>
    186a:	f851 2c04 	ldr.w	r2, [r1, #-4]
    186e:	1f0b      	subs	r3, r1, #4
    1870:	491d      	ldr	r1, [pc, #116]	; (18e8 <_free_r+0x84>)
    1872:	2a00      	cmp	r2, #0
    1874:	bfb8      	it	lt
    1876:	189b      	addlt	r3, r3, r2
    1878:	680a      	ldr	r2, [r1, #0]
    187a:	460c      	mov	r4, r1
    187c:	b912      	cbnz	r2, 1884 <_free_r+0x20>
    187e:	605a      	str	r2, [r3, #4]
    1880:	600b      	str	r3, [r1, #0]
    1882:	bd30      	pop	{r4, r5, pc}
    1884:	4293      	cmp	r3, r2
    1886:	d20d      	bcs.n	18a4 <_free_r+0x40>
    1888:	6819      	ldr	r1, [r3, #0]
    188a:	1858      	adds	r0, r3, r1
    188c:	4290      	cmp	r0, r2
    188e:	bf01      	itttt	eq
    1890:	585a      	ldreq	r2, [r3, r1]
    1892:	1852      	addeq	r2, r2, r1
    1894:	601a      	streq	r2, [r3, #0]
    1896:	6842      	ldreq	r2, [r0, #4]
    1898:	6023      	str	r3, [r4, #0]
    189a:	605a      	str	r2, [r3, #4]
    189c:	bd30      	pop	{r4, r5, pc}
    189e:	4299      	cmp	r1, r3
    18a0:	d803      	bhi.n	18aa <_free_r+0x46>
    18a2:	460a      	mov	r2, r1
    18a4:	6851      	ldr	r1, [r2, #4]
    18a6:	2900      	cmp	r1, #0
    18a8:	d1f9      	bne.n	189e <_free_r+0x3a>
    18aa:	6814      	ldr	r4, [r2, #0]
    18ac:	1915      	adds	r5, r2, r4
    18ae:	429d      	cmp	r5, r3
    18b0:	d10a      	bne.n	18c8 <_free_r+0x64>
    18b2:	681b      	ldr	r3, [r3, #0]
    18b4:	4423      	add	r3, r4
    18b6:	18d0      	adds	r0, r2, r3
    18b8:	4288      	cmp	r0, r1
    18ba:	6013      	str	r3, [r2, #0]
    18bc:	d112      	bne.n	18e4 <_free_r+0x80>
    18be:	6808      	ldr	r0, [r1, #0]
    18c0:	4403      	add	r3, r0
    18c2:	6013      	str	r3, [r2, #0]
    18c4:	684b      	ldr	r3, [r1, #4]
    18c6:	e00c      	b.n	18e2 <_free_r+0x7e>
    18c8:	d902      	bls.n	18d0 <_free_r+0x6c>
    18ca:	230c      	movs	r3, #12
    18cc:	6003      	str	r3, [r0, #0]
    18ce:	bd30      	pop	{r4, r5, pc}
    18d0:	681c      	ldr	r4, [r3, #0]
    18d2:	1918      	adds	r0, r3, r4
    18d4:	4288      	cmp	r0, r1
    18d6:	bf01      	itttt	eq
    18d8:	6808      	ldreq	r0, [r1, #0]
    18da:	6849      	ldreq	r1, [r1, #4]
    18dc:	1900      	addeq	r0, r0, r4
    18de:	6018      	streq	r0, [r3, #0]
    18e0:	6059      	str	r1, [r3, #4]
    18e2:	6053      	str	r3, [r2, #4]
    18e4:	bd30      	pop	{r4, r5, pc}
    18e6:	bf00      	nop
    18e8:	1000036c 	andne	r0, r0, ip, ror #6

000018ec <_malloc_r>:
    18ec:	b570      	push	{r4, r5, r6, lr}
    18ee:	1ccc      	adds	r4, r1, #3
    18f0:	f024 0403 	bic.w	r4, r4, #3
    18f4:	3408      	adds	r4, #8
    18f6:	2c0c      	cmp	r4, #12
    18f8:	bf38      	it	cc
    18fa:	240c      	movcc	r4, #12
    18fc:	2c00      	cmp	r4, #0
    18fe:	4606      	mov	r6, r0
    1900:	da03      	bge.n	190a <_malloc_r+0x1e>
    1902:	230c      	movs	r3, #12
    1904:	6033      	str	r3, [r6, #0]
    1906:	2000      	movs	r0, #0
    1908:	bd70      	pop	{r4, r5, r6, pc}
    190a:	428c      	cmp	r4, r1
    190c:	d3f9      	bcc.n	1902 <_malloc_r+0x16>
    190e:	4a20      	ldr	r2, [pc, #128]	; (1990 <_malloc_r+0xa4>)
    1910:	6813      	ldr	r3, [r2, #0]
    1912:	4610      	mov	r0, r2
    1914:	4619      	mov	r1, r3
    1916:	b1a1      	cbz	r1, 1942 <_malloc_r+0x56>
    1918:	680a      	ldr	r2, [r1, #0]
    191a:	1b12      	subs	r2, r2, r4
    191c:	d40e      	bmi.n	193c <_malloc_r+0x50>
    191e:	2a0b      	cmp	r2, #11
    1920:	d903      	bls.n	192a <_malloc_r+0x3e>
    1922:	600a      	str	r2, [r1, #0]
    1924:	188b      	adds	r3, r1, r2
    1926:	508c      	str	r4, [r1, r2]
    1928:	e01f      	b.n	196a <_malloc_r+0x7e>
    192a:	428b      	cmp	r3, r1
    192c:	bf0b      	itete	eq
    192e:	685a      	ldreq	r2, [r3, #4]
    1930:	684a      	ldrne	r2, [r1, #4]
    1932:	6002      	streq	r2, [r0, #0]
    1934:	605a      	strne	r2, [r3, #4]
    1936:	bf18      	it	ne
    1938:	460b      	movne	r3, r1
    193a:	e016      	b.n	196a <_malloc_r+0x7e>
    193c:	460b      	mov	r3, r1
    193e:	6849      	ldr	r1, [r1, #4]
    1940:	e7e9      	b.n	1916 <_malloc_r+0x2a>
    1942:	4d14      	ldr	r5, [pc, #80]	; (1994 <_malloc_r+0xa8>)
    1944:	682b      	ldr	r3, [r5, #0]
    1946:	b91b      	cbnz	r3, 1950 <_malloc_r+0x64>
    1948:	4630      	mov	r0, r6
    194a:	f000 faf3 	bl	1f34 <_sbrk_r>
    194e:	6028      	str	r0, [r5, #0]
    1950:	4630      	mov	r0, r6
    1952:	4621      	mov	r1, r4
    1954:	f000 faee 	bl	1f34 <_sbrk_r>
    1958:	1c42      	adds	r2, r0, #1
    195a:	4603      	mov	r3, r0
    195c:	d0d1      	beq.n	1902 <_malloc_r+0x16>
    195e:	1cc5      	adds	r5, r0, #3
    1960:	f025 0503 	bic.w	r5, r5, #3
    1964:	4285      	cmp	r5, r0
    1966:	d10a      	bne.n	197e <_malloc_r+0x92>
    1968:	601c      	str	r4, [r3, #0]
    196a:	f103 000b 	add.w	r0, r3, #11
    196e:	1d1a      	adds	r2, r3, #4
    1970:	f020 0007 	bic.w	r0, r0, #7
    1974:	1a82      	subs	r2, r0, r2
    1976:	d00a      	beq.n	198e <_malloc_r+0xa2>
    1978:	4251      	negs	r1, r2
    197a:	5099      	str	r1, [r3, r2]
    197c:	bd70      	pop	{r4, r5, r6, pc}
    197e:	4630      	mov	r0, r6
    1980:	1ae9      	subs	r1, r5, r3
    1982:	f000 fad7 	bl	1f34 <_sbrk_r>
    1986:	3001      	adds	r0, #1
    1988:	d0bb      	beq.n	1902 <_malloc_r+0x16>
    198a:	462b      	mov	r3, r5
    198c:	e7ec      	b.n	1968 <_malloc_r+0x7c>
    198e:	bd70      	pop	{r4, r5, r6, pc}
    1990:	1000036c 	andne	r0, r0, ip, ror #6
    1994:	10000368 	andne	r0, r0, r8, ror #6

00001998 <__sfputc_r>:
    1998:	6893      	ldr	r3, [r2, #8]
    199a:	b510      	push	{r4, lr}
    199c:	3b01      	subs	r3, #1
    199e:	2b00      	cmp	r3, #0
    19a0:	6093      	str	r3, [r2, #8]
    19a2:	da09      	bge.n	19b8 <__sfputc_r+0x20>
    19a4:	6994      	ldr	r4, [r2, #24]
    19a6:	42a3      	cmp	r3, r4
    19a8:	db02      	blt.n	19b0 <__sfputc_r+0x18>
    19aa:	b2cb      	uxtb	r3, r1
    19ac:	2b0a      	cmp	r3, #10
    19ae:	d103      	bne.n	19b8 <__sfputc_r+0x20>
    19b0:	e8bd 4010 	ldmia.w	sp!, {r4, lr}
    19b4:	f000 bb12 	b.w	1fdc <__swbuf_r>
    19b8:	6813      	ldr	r3, [r2, #0]
    19ba:	1c58      	adds	r0, r3, #1
    19bc:	6010      	str	r0, [r2, #0]
    19be:	7019      	strb	r1, [r3, #0]
    19c0:	b2c8      	uxtb	r0, r1
    19c2:	bd10      	pop	{r4, pc}

000019c4 <__sfputs_r>:
    19c4:	b5f8      	push	{r3, r4, r5, r6, r7, lr}
    19c6:	4606      	mov	r6, r0
    19c8:	460f      	mov	r7, r1
    19ca:	4614      	mov	r4, r2
    19cc:	18d5      	adds	r5, r2, r3
    19ce:	42ac      	cmp	r4, r5
    19d0:	d008      	beq.n	19e4 <__sfputs_r+0x20>
    19d2:	4630      	mov	r0, r6
    19d4:	f814 1b01 	ldrb.w	r1, [r4], #1
    19d8:	463a      	mov	r2, r7
    19da:	f7ff ffdd 	bl	1998 <__sfputc_r>
    19de:	1c43      	adds	r3, r0, #1
    19e0:	d1f5      	bne.n	19ce <__sfputs_r+0xa>
    19e2:	e000      	b.n	19e6 <__sfputs_r+0x22>
    19e4:	2000      	movs	r0, #0
    19e6:	bdf8      	pop	{r3, r4, r5, r6, r7, pc}

000019e8 <_vfiprintf_r>:
    19e8:	e92d 43f0 	stmdb	sp!, {r4, r5, r6, r7, r8, r9, lr}
    19ec:	b09d      	sub	sp, #116	; 0x74
    19ee:	460d      	mov	r5, r1
    19f0:	4690      	mov	r8, r2
    19f2:	9303      	str	r3, [sp, #12]
    19f4:	4606      	mov	r6, r0
    19f6:	b118      	cbz	r0, 1a00 <_vfiprintf_r+0x18>
    19f8:	6983      	ldr	r3, [r0, #24]
    19fa:	b90b      	cbnz	r3, 1a00 <_vfiprintf_r+0x18>
    19fc:	f7ff fe50 	bl	16a0 <__sinit>
    1a00:	4b75      	ldr	r3, [pc, #468]	; (1bd8 <_vfiprintf_r+0x1f0>)
    1a02:	429d      	cmp	r5, r3
    1a04:	d101      	bne.n	1a0a <_vfiprintf_r+0x22>
    1a06:	6875      	ldr	r5, [r6, #4]
    1a08:	e008      	b.n	1a1c <_vfiprintf_r+0x34>
    1a0a:	4b74      	ldr	r3, [pc, #464]	; (1bdc <_vfiprintf_r+0x1f4>)
    1a0c:	429d      	cmp	r5, r3
    1a0e:	d101      	bne.n	1a14 <_vfiprintf_r+0x2c>
    1a10:	68b5      	ldr	r5, [r6, #8]
    1a12:	e003      	b.n	1a1c <_vfiprintf_r+0x34>
    1a14:	4b72      	ldr	r3, [pc, #456]	; (1be0 <_vfiprintf_r+0x1f8>)
    1a16:	429d      	cmp	r5, r3
    1a18:	bf08      	it	eq
    1a1a:	68f5      	ldreq	r5, [r6, #12]
    1a1c:	89ab      	ldrh	r3, [r5, #12]
    1a1e:	071c      	lsls	r4, r3, #28
    1a20:	d50a      	bpl.n	1a38 <_vfiprintf_r+0x50>
    1a22:	692b      	ldr	r3, [r5, #16]
    1a24:	b143      	cbz	r3, 1a38 <_vfiprintf_r+0x50>
    1a26:	2300      	movs	r3, #0
    1a28:	9309      	str	r3, [sp, #36]	; 0x24
    1a2a:	2320      	movs	r3, #32
    1a2c:	f88d 3029 	strb.w	r3, [sp, #41]	; 0x29
    1a30:	2330      	movs	r3, #48	; 0x30
    1a32:	f88d 302a 	strb.w	r3, [sp, #42]	; 0x2a
    1a36:	e041      	b.n	1abc <_vfiprintf_r+0xd4>
    1a38:	4630      	mov	r0, r6
    1a3a:	4629      	mov	r1, r5
    1a3c:	f000 fb34 	bl	20a8 <__swsetup_r>
    1a40:	2800      	cmp	r0, #0
    1a42:	d0f0      	beq.n	1a26 <_vfiprintf_r+0x3e>
    1a44:	f04f 30ff 	mov.w	r0, #4294967295	; 0xffffffff
    1a48:	e0c2      	b.n	1bd0 <_vfiprintf_r+0x1e8>
    1a4a:	9a03      	ldr	r2, [sp, #12]
    1a4c:	3401      	adds	r4, #1
    1a4e:	1d11      	adds	r1, r2, #4
    1a50:	6812      	ldr	r2, [r2, #0]
    1a52:	9103      	str	r1, [sp, #12]
    1a54:	2a00      	cmp	r2, #0
    1a56:	bfbb      	ittet	lt
    1a58:	4252      	neglt	r2, r2
    1a5a:	f043 0302 	orrlt.w	r3, r3, #2
    1a5e:	9207      	strge	r2, [sp, #28]
    1a60:	9207      	strlt	r2, [sp, #28]
    1a62:	bfb8      	it	lt
    1a64:	9304      	strlt	r3, [sp, #16]
    1a66:	7823      	ldrb	r3, [r4, #0]
    1a68:	2b2e      	cmp	r3, #46	; 0x2e
    1a6a:	d07b      	beq.n	1b64 <_vfiprintf_r+0x17c>
    1a6c:	f8df 8180 	ldr.w	r8, [pc, #384]	; 1bf0 <_vfiprintf_r+0x208>
    1a70:	7821      	ldrb	r1, [r4, #0]
    1a72:	4640      	mov	r0, r8
    1a74:	2203      	movs	r2, #3
    1a76:	f7ff fed3 	bl	1820 <memchr>
    1a7a:	b138      	cbz	r0, 1a8c <_vfiprintf_r+0xa4>
    1a7c:	9a04      	ldr	r2, [sp, #16]
    1a7e:	ebc8 0000 	rsb	r0, r8, r0
    1a82:	2340      	movs	r3, #64	; 0x40
    1a84:	4083      	lsls	r3, r0
    1a86:	4313      	orrs	r3, r2
    1a88:	9304      	str	r3, [sp, #16]
    1a8a:	3401      	adds	r4, #1
    1a8c:	7821      	ldrb	r1, [r4, #0]
    1a8e:	4855      	ldr	r0, [pc, #340]	; (1be4 <_vfiprintf_r+0x1fc>)
    1a90:	2206      	movs	r2, #6
    1a92:	f104 0801 	add.w	r8, r4, #1
    1a96:	f88d 1028 	strb.w	r1, [sp, #40]	; 0x28
    1a9a:	f7ff fec1 	bl	1820 <memchr>
    1a9e:	2800      	cmp	r0, #0
    1aa0:	f000 8085 	beq.w	1bae <_vfiprintf_r+0x1c6>
    1aa4:	4b50      	ldr	r3, [pc, #320]	; (1be8 <_vfiprintf_r+0x200>)
    1aa6:	2b00      	cmp	r3, #0
    1aa8:	d178      	bne.n	1b9c <_vfiprintf_r+0x1b4>
    1aaa:	9b03      	ldr	r3, [sp, #12]
    1aac:	3307      	adds	r3, #7
    1aae:	f023 0307 	bic.w	r3, r3, #7
    1ab2:	3308      	adds	r3, #8
    1ab4:	9303      	str	r3, [sp, #12]
    1ab6:	9b09      	ldr	r3, [sp, #36]	; 0x24
    1ab8:	443b      	add	r3, r7
    1aba:	9309      	str	r3, [sp, #36]	; 0x24
    1abc:	4643      	mov	r3, r8
    1abe:	461c      	mov	r4, r3
    1ac0:	f813 2b01 	ldrb.w	r2, [r3], #1
    1ac4:	b91a      	cbnz	r2, 1ace <_vfiprintf_r+0xe6>
    1ac6:	ebb4 0908 	subs.w	r9, r4, r8
    1aca:	d00e      	beq.n	1aea <_vfiprintf_r+0x102>
    1acc:	e002      	b.n	1ad4 <_vfiprintf_r+0xec>
    1ace:	2a25      	cmp	r2, #37	; 0x25
    1ad0:	d1f5      	bne.n	1abe <_vfiprintf_r+0xd6>
    1ad2:	e7f8      	b.n	1ac6 <_vfiprintf_r+0xde>
    1ad4:	4630      	mov	r0, r6
    1ad6:	4629      	mov	r1, r5
    1ad8:	4642      	mov	r2, r8
    1ada:	464b      	mov	r3, r9
    1adc:	f7ff ff72 	bl	19c4 <__sfputs_r>
    1ae0:	3001      	adds	r0, #1
    1ae2:	d070      	beq.n	1bc6 <_vfiprintf_r+0x1de>
    1ae4:	9b09      	ldr	r3, [sp, #36]	; 0x24
    1ae6:	444b      	add	r3, r9
    1ae8:	9309      	str	r3, [sp, #36]	; 0x24
    1aea:	7823      	ldrb	r3, [r4, #0]
    1aec:	2b00      	cmp	r3, #0
    1aee:	d06a      	beq.n	1bc6 <_vfiprintf_r+0x1de>
    1af0:	2300      	movs	r3, #0
    1af2:	f04f 32ff 	mov.w	r2, #4294967295	; 0xffffffff
    1af6:	9304      	str	r3, [sp, #16]
    1af8:	9307      	str	r3, [sp, #28]
    1afa:	9205      	str	r2, [sp, #20]
    1afc:	9306      	str	r3, [sp, #24]
    1afe:	f88d 3053 	strb.w	r3, [sp, #83]	; 0x53
    1b02:	931a      	str	r3, [sp, #104]	; 0x68
    1b04:	f104 0801 	add.w	r8, r4, #1
    1b08:	4644      	mov	r4, r8
    1b0a:	f8df 90e8 	ldr.w	r9, [pc, #232]	; 1bf4 <_vfiprintf_r+0x20c>
    1b0e:	7821      	ldrb	r1, [r4, #0]
    1b10:	4648      	mov	r0, r9
    1b12:	2205      	movs	r2, #5
    1b14:	f7ff fe84 	bl	1820 <memchr>
    1b18:	f108 0801 	add.w	r8, r8, #1
    1b1c:	9b04      	ldr	r3, [sp, #16]
    1b1e:	b130      	cbz	r0, 1b2e <_vfiprintf_r+0x146>
    1b20:	ebc9 0000 	rsb	r0, r9, r0
    1b24:	2201      	movs	r2, #1
    1b26:	4082      	lsls	r2, r0
    1b28:	4313      	orrs	r3, r2
    1b2a:	9304      	str	r3, [sp, #16]
    1b2c:	e7ec      	b.n	1b08 <_vfiprintf_r+0x120>
    1b2e:	06d8      	lsls	r0, r3, #27
    1b30:	bf44      	itt	mi
    1b32:	2220      	movmi	r2, #32
    1b34:	f88d 2053 	strbmi.w	r2, [sp, #83]	; 0x53
    1b38:	0719      	lsls	r1, r3, #28
    1b3a:	bf44      	itt	mi
    1b3c:	222b      	movmi	r2, #43	; 0x2b
    1b3e:	f88d 2053 	strbmi.w	r2, [sp, #83]	; 0x53
    1b42:	7822      	ldrb	r2, [r4, #0]
    1b44:	2a2a      	cmp	r2, #42	; 0x2a
    1b46:	d080      	beq.n	1a4a <_vfiprintf_r+0x62>
    1b48:	4623      	mov	r3, r4
    1b4a:	9907      	ldr	r1, [sp, #28]
    1b4c:	461c      	mov	r4, r3
    1b4e:	7822      	ldrb	r2, [r4, #0]
    1b50:	3301      	adds	r3, #1
    1b52:	3a30      	subs	r2, #48	; 0x30
    1b54:	2a09      	cmp	r2, #9
    1b56:	d803      	bhi.n	1b60 <_vfiprintf_r+0x178>
    1b58:	200a      	movs	r0, #10
    1b5a:	fb00 2101 	mla	r1, r0, r1, r2
    1b5e:	e7f5      	b.n	1b4c <_vfiprintf_r+0x164>
    1b60:	9107      	str	r1, [sp, #28]
    1b62:	e780      	b.n	1a66 <_vfiprintf_r+0x7e>
    1b64:	7863      	ldrb	r3, [r4, #1]
    1b66:	2b2a      	cmp	r3, #42	; 0x2a
    1b68:	d10a      	bne.n	1b80 <_vfiprintf_r+0x198>
    1b6a:	9b03      	ldr	r3, [sp, #12]
    1b6c:	3402      	adds	r4, #2
    1b6e:	1d1a      	adds	r2, r3, #4
    1b70:	681b      	ldr	r3, [r3, #0]
    1b72:	9203      	str	r2, [sp, #12]
    1b74:	2b00      	cmp	r3, #0
    1b76:	bfb8      	it	lt
    1b78:	f04f 33ff 	movlt.w	r3, #4294967295	; 0xffffffff
    1b7c:	9305      	str	r3, [sp, #20]
    1b7e:	e775      	b.n	1a6c <_vfiprintf_r+0x84>
    1b80:	1c61      	adds	r1, r4, #1
    1b82:	2200      	movs	r2, #0
    1b84:	460c      	mov	r4, r1
    1b86:	7823      	ldrb	r3, [r4, #0]
    1b88:	3101      	adds	r1, #1
    1b8a:	3b30      	subs	r3, #48	; 0x30
    1b8c:	2b09      	cmp	r3, #9
    1b8e:	d803      	bhi.n	1b98 <_vfiprintf_r+0x1b0>
    1b90:	200a      	movs	r0, #10
    1b92:	fb00 3202 	mla	r2, r0, r2, r3
    1b96:	e7f5      	b.n	1b84 <_vfiprintf_r+0x19c>
    1b98:	9205      	str	r2, [sp, #20]
    1b9a:	e767      	b.n	1a6c <_vfiprintf_r+0x84>
    1b9c:	ab03      	add	r3, sp, #12
    1b9e:	9300      	str	r3, [sp, #0]
    1ba0:	4630      	mov	r0, r6
    1ba2:	a904      	add	r1, sp, #16
    1ba4:	462a      	mov	r2, r5
    1ba6:	4b11      	ldr	r3, [pc, #68]	; (1bec <_vfiprintf_r+0x204>)
    1ba8:	f3af 8000 	nop.w
    1bac:	e007      	b.n	1bbe <_vfiprintf_r+0x1d6>
    1bae:	ab03      	add	r3, sp, #12
    1bb0:	9300      	str	r3, [sp, #0]
    1bb2:	4630      	mov	r0, r6
    1bb4:	a904      	add	r1, sp, #16
    1bb6:	462a      	mov	r2, r5
    1bb8:	4b0c      	ldr	r3, [pc, #48]	; (1bec <_vfiprintf_r+0x204>)
    1bba:	f000 f8a1 	bl	1d00 <_printf_i>
    1bbe:	1c42      	adds	r2, r0, #1
    1bc0:	4607      	mov	r7, r0
    1bc2:	f47f af78 	bne.w	1ab6 <_vfiprintf_r+0xce>
    1bc6:	89ab      	ldrh	r3, [r5, #12]
    1bc8:	065b      	lsls	r3, r3, #25
    1bca:	f53f af3b 	bmi.w	1a44 <_vfiprintf_r+0x5c>
    1bce:	9809      	ldr	r0, [sp, #36]	; 0x24
    1bd0:	b01d      	add	sp, #116	; 0x74
    1bd2:	e8bd 83f0 	ldmia.w	sp!, {r4, r5, r6, r7, r8, r9, pc}
    1bd6:	bf00      	nop
    1bd8:	00002918 	andeq	r2, r0, r8, lsl r9
    1bdc:	00002938 	andeq	r2, r0, r8, lsr r9
    1be0:	00002958 	andeq	r2, r0, r8, asr r9
    1be4:	0000298a 	andeq	r2, r0, sl, lsl #19
    1be8:	00000000 	andeq	r0, r0, r0
    1bec:	000019c5 	andeq	r1, r0, r5, asr #19
    1bf0:	00002986 	andeq	r2, r0, r6, lsl #19
    1bf4:	00002980 	andeq	r2, r0, r0, lsl #19

00001bf8 <vfiprintf>:
    1bf8:	b530      	push	{r4, r5, lr}
    1bfa:	4605      	mov	r5, r0
    1bfc:	460c      	mov	r4, r1
    1bfe:	4613      	mov	r3, r2
    1c00:	4a03      	ldr	r2, [pc, #12]	; (1c10 <vfiprintf+0x18>)
    1c02:	4629      	mov	r1, r5
    1c04:	6810      	ldr	r0, [r2, #0]
    1c06:	4622      	mov	r2, r4
    1c08:	e8bd 4030 	ldmia.w	sp!, {r4, r5, lr}
    1c0c:	f7ff beec 	b.w	19e8 <_vfiprintf_r>
    1c10:	10000130 	andne	r0, r0, r0, lsr r1

00001c14 <_printf_common>:
    1c14:	e92d 43f8 	stmdb	sp!, {r3, r4, r5, r6, r7, r8, r9, lr}
    1c18:	4691      	mov	r9, r2
    1c1a:	461f      	mov	r7, r3
    1c1c:	688a      	ldr	r2, [r1, #8]
    1c1e:	690b      	ldr	r3, [r1, #16]
    1c20:	4606      	mov	r6, r0
    1c22:	4293      	cmp	r3, r2
    1c24:	bfb8      	it	lt
    1c26:	4613      	movlt	r3, r2
    1c28:	f8c9 3000 	str.w	r3, [r9]
    1c2c:	f891 2043 	ldrb.w	r2, [r1, #67]	; 0x43
    1c30:	460c      	mov	r4, r1
    1c32:	f8dd 8020 	ldr.w	r8, [sp, #32]
    1c36:	b112      	cbz	r2, 1c3e <_printf_common+0x2a>
    1c38:	3301      	adds	r3, #1
    1c3a:	f8c9 3000 	str.w	r3, [r9]
    1c3e:	6823      	ldr	r3, [r4, #0]
    1c40:	0699      	lsls	r1, r3, #26
    1c42:	bf42      	ittt	mi
    1c44:	f8d9 3000 	ldrmi.w	r3, [r9]
    1c48:	3302      	addmi	r3, #2
    1c4a:	f8c9 3000 	strmi.w	r3, [r9]
    1c4e:	6825      	ldr	r5, [r4, #0]
    1c50:	f015 0506 	ands.w	r5, r5, #6
    1c54:	d01c      	beq.n	1c90 <_printf_common+0x7c>
    1c56:	f894 3043 	ldrb.w	r3, [r4, #67]	; 0x43
    1c5a:	6822      	ldr	r2, [r4, #0]
    1c5c:	3300      	adds	r3, #0
    1c5e:	bf18      	it	ne
    1c60:	2301      	movne	r3, #1
    1c62:	0692      	lsls	r2, r2, #26
    1c64:	d51f      	bpl.n	1ca6 <_printf_common+0x92>
    1c66:	18e1      	adds	r1, r4, r3
    1c68:	2030      	movs	r0, #48	; 0x30
    1c6a:	f881 0043 	strb.w	r0, [r1, #67]	; 0x43
    1c6e:	1c5a      	adds	r2, r3, #1
    1c70:	f894 1045 	ldrb.w	r1, [r4, #69]	; 0x45
    1c74:	4422      	add	r2, r4
    1c76:	3302      	adds	r3, #2
    1c78:	f882 1043 	strb.w	r1, [r2, #67]	; 0x43
    1c7c:	e013      	b.n	1ca6 <_printf_common+0x92>
    1c7e:	4630      	mov	r0, r6
    1c80:	4639      	mov	r1, r7
    1c82:	f104 0219 	add.w	r2, r4, #25
    1c86:	2301      	movs	r3, #1
    1c88:	47c0      	blx	r8
    1c8a:	3001      	adds	r0, #1
    1c8c:	d007      	beq.n	1c9e <_printf_common+0x8a>
    1c8e:	3501      	adds	r5, #1
    1c90:	68e3      	ldr	r3, [r4, #12]
    1c92:	f8d9 2000 	ldr.w	r2, [r9]
    1c96:	1a9b      	subs	r3, r3, r2
    1c98:	429d      	cmp	r5, r3
    1c9a:	dbf0      	blt.n	1c7e <_printf_common+0x6a>
    1c9c:	e7db      	b.n	1c56 <_printf_common+0x42>
    1c9e:	f04f 30ff 	mov.w	r0, #4294967295	; 0xffffffff
    1ca2:	e8bd 83f8 	ldmia.w	sp!, {r3, r4, r5, r6, r7, r8, r9, pc}
    1ca6:	4630      	mov	r0, r6
    1ca8:	4639      	mov	r1, r7
    1caa:	f104 0243 	add.w	r2, r4, #67	; 0x43
    1cae:	47c0      	blx	r8
    1cb0:	3001      	adds	r0, #1
    1cb2:	d0f4      	beq.n	1c9e <_printf_common+0x8a>
    1cb4:	6822      	ldr	r2, [r4, #0]
    1cb6:	f8d9 5000 	ldr.w	r5, [r9]
    1cba:	68e3      	ldr	r3, [r4, #12]
    1cbc:	f002 0206 	and.w	r2, r2, #6
    1cc0:	2a04      	cmp	r2, #4
    1cc2:	bf08      	it	eq
    1cc4:	1b5d      	subeq	r5, r3, r5
    1cc6:	6922      	ldr	r2, [r4, #16]
    1cc8:	68a3      	ldr	r3, [r4, #8]
    1cca:	bf0c      	ite	eq
    1ccc:	ea25 75e5 	biceq.w	r5, r5, r5, asr #31
    1cd0:	2500      	movne	r5, #0
    1cd2:	4293      	cmp	r3, r2
    1cd4:	bfc4      	itt	gt
    1cd6:	1a9b      	subgt	r3, r3, r2
    1cd8:	18ed      	addgt	r5, r5, r3
    1cda:	f04f 0900 	mov.w	r9, #0
    1cde:	45a9      	cmp	r9, r5
    1ce0:	da0a      	bge.n	1cf8 <_printf_common+0xe4>
    1ce2:	4630      	mov	r0, r6
    1ce4:	4639      	mov	r1, r7
    1ce6:	f104 021a 	add.w	r2, r4, #26
    1cea:	2301      	movs	r3, #1
    1cec:	47c0      	blx	r8
    1cee:	3001      	adds	r0, #1
    1cf0:	d0d5      	beq.n	1c9e <_printf_common+0x8a>
    1cf2:	f109 0901 	add.w	r9, r9, #1
    1cf6:	e7f2      	b.n	1cde <_printf_common+0xca>
    1cf8:	2000      	movs	r0, #0
    1cfa:	e8bd 83f8 	ldmia.w	sp!, {r3, r4, r5, r6, r7, r8, r9, pc}
	...

00001d00 <_printf_i>:
    1d00:	e92d 41ff 	stmdb	sp!, {r0, r1, r2, r3, r4, r5, r6, r7, r8, lr}
    1d04:	460c      	mov	r4, r1
    1d06:	4617      	mov	r7, r2
    1d08:	7e22      	ldrb	r2, [r4, #24]
    1d0a:	4698      	mov	r8, r3
    1d0c:	2a6e      	cmp	r2, #110	; 0x6e
    1d0e:	4606      	mov	r6, r0
    1d10:	9b0a      	ldr	r3, [sp, #40]	; 0x28
    1d12:	f101 0143 	add.w	r1, r1, #67	; 0x43
    1d16:	f000 80aa 	beq.w	1e6e <_printf_i+0x16e>
    1d1a:	d812      	bhi.n	1d42 <_printf_i+0x42>
    1d1c:	2a63      	cmp	r2, #99	; 0x63
    1d1e:	d023      	beq.n	1d68 <_printf_i+0x68>
    1d20:	d80a      	bhi.n	1d38 <_printf_i+0x38>
    1d22:	2a00      	cmp	r2, #0
    1d24:	f000 80b7 	beq.w	1e96 <_printf_i+0x196>
    1d28:	2a58      	cmp	r2, #88	; 0x58
    1d2a:	f040 80c6 	bne.w	1eba <_printf_i+0x1ba>
    1d2e:	f884 2045 	strb.w	r2, [r4, #69]	; 0x45
    1d32:	f8df e1f8 	ldr.w	lr, [pc, #504]	; 1f2c <_printf_i+0x22c>
    1d36:	e051      	b.n	1ddc <_printf_i+0xdc>
    1d38:	2a64      	cmp	r2, #100	; 0x64
    1d3a:	d01e      	beq.n	1d7a <_printf_i+0x7a>
    1d3c:	2a69      	cmp	r2, #105	; 0x69
    1d3e:	d01c      	beq.n	1d7a <_printf_i+0x7a>
    1d40:	e0bb      	b.n	1eba <_printf_i+0x1ba>
    1d42:	2a73      	cmp	r2, #115	; 0x73
    1d44:	f000 80ab 	beq.w	1e9e <_printf_i+0x19e>
    1d48:	d809      	bhi.n	1d5e <_printf_i+0x5e>
    1d4a:	2a6f      	cmp	r2, #111	; 0x6f
    1d4c:	d02b      	beq.n	1da6 <_printf_i+0xa6>
    1d4e:	2a70      	cmp	r2, #112	; 0x70
    1d50:	f040 80b3 	bne.w	1eba <_printf_i+0x1ba>
    1d54:	6822      	ldr	r2, [r4, #0]
    1d56:	f042 0220 	orr.w	r2, r2, #32
    1d5a:	6022      	str	r2, [r4, #0]
    1d5c:	e039      	b.n	1dd2 <_printf_i+0xd2>
    1d5e:	2a75      	cmp	r2, #117	; 0x75
    1d60:	d021      	beq.n	1da6 <_printf_i+0xa6>
    1d62:	2a78      	cmp	r2, #120	; 0x78
    1d64:	d035      	beq.n	1dd2 <_printf_i+0xd2>
    1d66:	e0a8      	b.n	1eba <_printf_i+0x1ba>
    1d68:	681a      	ldr	r2, [r3, #0]
    1d6a:	f104 0542 	add.w	r5, r4, #66	; 0x42
    1d6e:	1d11      	adds	r1, r2, #4
    1d70:	6019      	str	r1, [r3, #0]
    1d72:	6813      	ldr	r3, [r2, #0]
    1d74:	f884 3042 	strb.w	r3, [r4, #66]	; 0x42
    1d78:	e0a3      	b.n	1ec2 <_printf_i+0x1c2>
    1d7a:	6820      	ldr	r0, [r4, #0]
    1d7c:	681a      	ldr	r2, [r3, #0]
    1d7e:	f010 0f80 	tst.w	r0, #128	; 0x80
    1d82:	d003      	beq.n	1d8c <_printf_i+0x8c>
    1d84:	1d10      	adds	r0, r2, #4
    1d86:	6018      	str	r0, [r3, #0]
    1d88:	6813      	ldr	r3, [r2, #0]
    1d8a:	e005      	b.n	1d98 <_printf_i+0x98>
    1d8c:	0645      	lsls	r5, r0, #25
    1d8e:	d5f9      	bpl.n	1d84 <_printf_i+0x84>
    1d90:	1d10      	adds	r0, r2, #4
    1d92:	6018      	str	r0, [r3, #0]
    1d94:	f9b2 3000 	ldrsh.w	r3, [r2]
    1d98:	2b00      	cmp	r3, #0
    1d9a:	da3b      	bge.n	1e14 <_printf_i+0x114>
    1d9c:	222d      	movs	r2, #45	; 0x2d
    1d9e:	425b      	negs	r3, r3
    1da0:	f884 2043 	strb.w	r2, [r4, #67]	; 0x43
    1da4:	e036      	b.n	1e14 <_printf_i+0x114>
    1da6:	6820      	ldr	r0, [r4, #0]
    1da8:	681a      	ldr	r2, [r3, #0]
    1daa:	f010 0f80 	tst.w	r0, #128	; 0x80
    1dae:	d003      	beq.n	1db8 <_printf_i+0xb8>
    1db0:	1d10      	adds	r0, r2, #4
    1db2:	6018      	str	r0, [r3, #0]
    1db4:	6813      	ldr	r3, [r2, #0]
    1db6:	e004      	b.n	1dc2 <_printf_i+0xc2>
    1db8:	0640      	lsls	r0, r0, #25
    1dba:	d5f9      	bpl.n	1db0 <_printf_i+0xb0>
    1dbc:	1d10      	adds	r0, r2, #4
    1dbe:	6018      	str	r0, [r3, #0]
    1dc0:	8813      	ldrh	r3, [r2, #0]
    1dc2:	7e22      	ldrb	r2, [r4, #24]
    1dc4:	f8df e164 	ldr.w	lr, [pc, #356]	; 1f2c <_printf_i+0x22c>
    1dc8:	2a6f      	cmp	r2, #111	; 0x6f
    1dca:	bf0c      	ite	eq
    1dcc:	2208      	moveq	r2, #8
    1dce:	220a      	movne	r2, #10
    1dd0:	e01c      	b.n	1e0c <_printf_i+0x10c>
    1dd2:	2278      	movs	r2, #120	; 0x78
    1dd4:	f8df e158 	ldr.w	lr, [pc, #344]	; 1f30 <_printf_i+0x230>
    1dd8:	f884 2045 	strb.w	r2, [r4, #69]	; 0x45
    1ddc:	6822      	ldr	r2, [r4, #0]
    1dde:	6818      	ldr	r0, [r3, #0]
    1de0:	f012 0f80 	tst.w	r2, #128	; 0x80
    1de4:	f100 0504 	add.w	r5, r0, #4
    1de8:	601d      	str	r5, [r3, #0]
    1dea:	d001      	beq.n	1df0 <_printf_i+0xf0>
    1dec:	6803      	ldr	r3, [r0, #0]
    1dee:	e002      	b.n	1df6 <_printf_i+0xf6>
    1df0:	0655      	lsls	r5, r2, #25
    1df2:	d5fb      	bpl.n	1dec <_printf_i+0xec>
    1df4:	8803      	ldrh	r3, [r0, #0]
    1df6:	07d0      	lsls	r0, r2, #31
    1df8:	bf44      	itt	mi
    1dfa:	f042 0220 	orrmi.w	r2, r2, #32
    1dfe:	6022      	strmi	r2, [r4, #0]
    1e00:	b91b      	cbnz	r3, 1e0a <_printf_i+0x10a>
    1e02:	6822      	ldr	r2, [r4, #0]
    1e04:	f022 0220 	bic.w	r2, r2, #32
    1e08:	6022      	str	r2, [r4, #0]
    1e0a:	2210      	movs	r2, #16
    1e0c:	2000      	movs	r0, #0
    1e0e:	f884 0043 	strb.w	r0, [r4, #67]	; 0x43
    1e12:	e002      	b.n	1e1a <_printf_i+0x11a>
    1e14:	f8df e114 	ldr.w	lr, [pc, #276]	; 1f2c <_printf_i+0x22c>
    1e18:	220a      	movs	r2, #10
    1e1a:	6865      	ldr	r5, [r4, #4]
    1e1c:	2d00      	cmp	r5, #0
    1e1e:	bfa8      	it	ge
    1e20:	6820      	ldrge	r0, [r4, #0]
    1e22:	60a5      	str	r5, [r4, #8]
    1e24:	bfa4      	itt	ge
    1e26:	f020 0004 	bicge.w	r0, r0, #4
    1e2a:	6020      	strge	r0, [r4, #0]
    1e2c:	b903      	cbnz	r3, 1e30 <_printf_i+0x130>
    1e2e:	b165      	cbz	r5, 1e4a <_printf_i+0x14a>
    1e30:	460d      	mov	r5, r1
    1e32:	fbb3 f0f2 	udiv	r0, r3, r2
    1e36:	fb02 3310 	mls	r3, r2, r0, r3
    1e3a:	f81e 3003 	ldrb.w	r3, [lr, r3]
    1e3e:	f805 3d01 	strb.w	r3, [r5, #-1]!
    1e42:	4603      	mov	r3, r0
    1e44:	2800      	cmp	r0, #0
    1e46:	d1f4      	bne.n	1e32 <_printf_i+0x132>
    1e48:	e000      	b.n	1e4c <_printf_i+0x14c>
    1e4a:	460d      	mov	r5, r1
    1e4c:	2a08      	cmp	r2, #8
    1e4e:	d10b      	bne.n	1e68 <_printf_i+0x168>
    1e50:	6823      	ldr	r3, [r4, #0]
    1e52:	07da      	lsls	r2, r3, #31
    1e54:	d508      	bpl.n	1e68 <_printf_i+0x168>
    1e56:	6923      	ldr	r3, [r4, #16]
    1e58:	6862      	ldr	r2, [r4, #4]
    1e5a:	429a      	cmp	r2, r3
    1e5c:	bfde      	ittt	le
    1e5e:	2330      	movle	r3, #48	; 0x30
    1e60:	f805 3c01 	strble.w	r3, [r5, #-1]
    1e64:	f105 35ff 	addle.w	r5, r5, #4294967295	; 0xffffffff
    1e68:	1b49      	subs	r1, r1, r5
    1e6a:	6121      	str	r1, [r4, #16]
    1e6c:	e02e      	b.n	1ecc <_printf_i+0x1cc>
    1e6e:	6825      	ldr	r5, [r4, #0]
    1e70:	681a      	ldr	r2, [r3, #0]
    1e72:	f015 0f80 	tst.w	r5, #128	; 0x80
    1e76:	6960      	ldr	r0, [r4, #20]
    1e78:	d003      	beq.n	1e82 <_printf_i+0x182>
    1e7a:	1d15      	adds	r5, r2, #4
    1e7c:	601d      	str	r5, [r3, #0]
    1e7e:	6813      	ldr	r3, [r2, #0]
    1e80:	e008      	b.n	1e94 <_printf_i+0x194>
    1e82:	f015 0f40 	tst.w	r5, #64	; 0x40
    1e86:	f102 0504 	add.w	r5, r2, #4
    1e8a:	601d      	str	r5, [r3, #0]
    1e8c:	6813      	ldr	r3, [r2, #0]
    1e8e:	d001      	beq.n	1e94 <_printf_i+0x194>
    1e90:	8018      	strh	r0, [r3, #0]
    1e92:	e000      	b.n	1e96 <_printf_i+0x196>
    1e94:	6018      	str	r0, [r3, #0]
    1e96:	2300      	movs	r3, #0
    1e98:	6123      	str	r3, [r4, #16]
    1e9a:	460d      	mov	r5, r1
    1e9c:	e016      	b.n	1ecc <_printf_i+0x1cc>
    1e9e:	681a      	ldr	r2, [r3, #0]
    1ea0:	1d11      	adds	r1, r2, #4
    1ea2:	6019      	str	r1, [r3, #0]
    1ea4:	6815      	ldr	r5, [r2, #0]
    1ea6:	2100      	movs	r1, #0
    1ea8:	4628      	mov	r0, r5
    1eaa:	6862      	ldr	r2, [r4, #4]
    1eac:	f7ff fcb8 	bl	1820 <memchr>
    1eb0:	b108      	cbz	r0, 1eb6 <_printf_i+0x1b6>
    1eb2:	1b40      	subs	r0, r0, r5
    1eb4:	6060      	str	r0, [r4, #4]
    1eb6:	6863      	ldr	r3, [r4, #4]
    1eb8:	e004      	b.n	1ec4 <_printf_i+0x1c4>
    1eba:	f104 0542 	add.w	r5, r4, #66	; 0x42
    1ebe:	f884 2042 	strb.w	r2, [r4, #66]	; 0x42
    1ec2:	2301      	movs	r3, #1
    1ec4:	6123      	str	r3, [r4, #16]
    1ec6:	2300      	movs	r3, #0
    1ec8:	f884 3043 	strb.w	r3, [r4, #67]	; 0x43
    1ecc:	f8cd 8000 	str.w	r8, [sp]
    1ed0:	4630      	mov	r0, r6
    1ed2:	4621      	mov	r1, r4
    1ed4:	aa03      	add	r2, sp, #12
    1ed6:	463b      	mov	r3, r7
    1ed8:	f7ff fe9c 	bl	1c14 <_printf_common>
    1edc:	3001      	adds	r0, #1
    1ede:	d102      	bne.n	1ee6 <_printf_i+0x1e6>
    1ee0:	f04f 30ff 	mov.w	r0, #4294967295	; 0xffffffff
    1ee4:	e01f      	b.n	1f26 <_printf_i+0x226>
    1ee6:	4630      	mov	r0, r6
    1ee8:	4639      	mov	r1, r7
    1eea:	462a      	mov	r2, r5
    1eec:	6923      	ldr	r3, [r4, #16]
    1eee:	47c0      	blx	r8
    1ef0:	3001      	adds	r0, #1
    1ef2:	d0f5      	beq.n	1ee0 <_printf_i+0x1e0>
    1ef4:	6823      	ldr	r3, [r4, #0]
    1ef6:	079b      	lsls	r3, r3, #30
    1ef8:	d405      	bmi.n	1f06 <_printf_i+0x206>
    1efa:	68e0      	ldr	r0, [r4, #12]
    1efc:	9b03      	ldr	r3, [sp, #12]
    1efe:	4298      	cmp	r0, r3
    1f00:	bfb8      	it	lt
    1f02:	4618      	movlt	r0, r3
    1f04:	e00f      	b.n	1f26 <_printf_i+0x226>
    1f06:	2500      	movs	r5, #0
    1f08:	68e3      	ldr	r3, [r4, #12]
    1f0a:	9a03      	ldr	r2, [sp, #12]
    1f0c:	1a9b      	subs	r3, r3, r2
    1f0e:	429d      	cmp	r5, r3
    1f10:	daf3      	bge.n	1efa <_printf_i+0x1fa>
    1f12:	4630      	mov	r0, r6
    1f14:	4639      	mov	r1, r7
    1f16:	f104 0219 	add.w	r2, r4, #25
    1f1a:	2301      	movs	r3, #1
    1f1c:	47c0      	blx	r8
    1f1e:	3001      	adds	r0, #1
    1f20:	d0de      	beq.n	1ee0 <_printf_i+0x1e0>
    1f22:	3501      	adds	r5, #1
    1f24:	e7f0      	b.n	1f08 <_printf_i+0x208>
    1f26:	b004      	add	sp, #16
    1f28:	e8bd 81f0 	ldmia.w	sp!, {r4, r5, r6, r7, r8, pc}
    1f2c:	00002991 	muleq	r0, r1, r9
    1f30:	000029a2 	andeq	r2, r0, r2, lsr #19

00001f34 <_sbrk_r>:
    1f34:	b538      	push	{r3, r4, r5, lr}
    1f36:	4c06      	ldr	r4, [pc, #24]	; (1f50 <_sbrk_r+0x1c>)
    1f38:	2300      	movs	r3, #0
    1f3a:	4605      	mov	r5, r0
    1f3c:	4608      	mov	r0, r1
    1f3e:	6023      	str	r3, [r4, #0]
    1f40:	f7fe fa3a 	bl	3b8 <_sbrk>
    1f44:	1c43      	adds	r3, r0, #1
    1f46:	d102      	bne.n	1f4e <_sbrk_r+0x1a>
    1f48:	6823      	ldr	r3, [r4, #0]
    1f4a:	b103      	cbz	r3, 1f4e <_sbrk_r+0x1a>
    1f4c:	602b      	str	r3, [r5, #0]
    1f4e:	bd38      	pop	{r3, r4, r5, pc}
    1f50:	10000378 	andne	r0, r0, r8, ror r3

00001f54 <__sread>:
    1f54:	b510      	push	{r4, lr}
    1f56:	460c      	mov	r4, r1
    1f58:	f9b1 100e 	ldrsh.w	r1, [r1, #14]
    1f5c:	f000 fa2c 	bl	23b8 <_read_r>
    1f60:	2800      	cmp	r0, #0
    1f62:	bfab      	itete	ge
    1f64:	6d63      	ldrge	r3, [r4, #84]	; 0x54
    1f66:	89a3      	ldrhlt	r3, [r4, #12]
    1f68:	181b      	addge	r3, r3, r0
    1f6a:	f423 5380 	biclt.w	r3, r3, #4096	; 0x1000
    1f6e:	bfac      	ite	ge
    1f70:	6563      	strge	r3, [r4, #84]	; 0x54
    1f72:	81a3      	strhlt	r3, [r4, #12]
    1f74:	bd10      	pop	{r4, pc}

00001f76 <__swrite>:
    1f76:	e92d 41f0 	stmdb	sp!, {r4, r5, r6, r7, r8, lr}
    1f7a:	461d      	mov	r5, r3
    1f7c:	898b      	ldrh	r3, [r1, #12]
    1f7e:	4607      	mov	r7, r0
    1f80:	05db      	lsls	r3, r3, #23
    1f82:	460c      	mov	r4, r1
    1f84:	4616      	mov	r6, r2
    1f86:	d505      	bpl.n	1f94 <__swrite+0x1e>
    1f88:	f9b1 100e 	ldrsh.w	r1, [r1, #14]
    1f8c:	2200      	movs	r2, #0
    1f8e:	2302      	movs	r3, #2
    1f90:	f000 f9b4 	bl	22fc <_lseek_r>
    1f94:	89a3      	ldrh	r3, [r4, #12]
    1f96:	4638      	mov	r0, r7
    1f98:	f423 5380 	bic.w	r3, r3, #4096	; 0x1000
    1f9c:	81a3      	strh	r3, [r4, #12]
    1f9e:	f9b4 100e 	ldrsh.w	r1, [r4, #14]
    1fa2:	4632      	mov	r2, r6
    1fa4:	462b      	mov	r3, r5
    1fa6:	e8bd 41f0 	ldmia.w	sp!, {r4, r5, r6, r7, r8, lr}
    1faa:	f000 b86b 	b.w	2084 <_write_r>

00001fae <__sseek>:
    1fae:	b510      	push	{r4, lr}
    1fb0:	460c      	mov	r4, r1
    1fb2:	f9b1 100e 	ldrsh.w	r1, [r1, #14]
    1fb6:	f000 f9a1 	bl	22fc <_lseek_r>
    1fba:	1c43      	adds	r3, r0, #1
    1fbc:	89a3      	ldrh	r3, [r4, #12]
    1fbe:	bf15      	itete	ne
    1fc0:	6560      	strne	r0, [r4, #84]	; 0x54
    1fc2:	f423 5380 	biceq.w	r3, r3, #4096	; 0x1000
    1fc6:	f443 5380 	orrne.w	r3, r3, #4096	; 0x1000
    1fca:	81a3      	strheq	r3, [r4, #12]
    1fcc:	bf18      	it	ne
    1fce:	81a3      	strhne	r3, [r4, #12]
    1fd0:	bd10      	pop	{r4, pc}

00001fd2 <__sclose>:
    1fd2:	f9b1 100e 	ldrsh.w	r1, [r1, #14]
    1fd6:	f000 b8d3 	b.w	2180 <_close_r>
	...

00001fdc <__swbuf_r>:
    1fdc:	b570      	push	{r4, r5, r6, lr}
    1fde:	460d      	mov	r5, r1
    1fe0:	4614      	mov	r4, r2
    1fe2:	4606      	mov	r6, r0
    1fe4:	b118      	cbz	r0, 1fee <__swbuf_r+0x12>
    1fe6:	6983      	ldr	r3, [r0, #24]
    1fe8:	b90b      	cbnz	r3, 1fee <__swbuf_r+0x12>
    1fea:	f7ff fb59 	bl	16a0 <__sinit>
    1fee:	4b22      	ldr	r3, [pc, #136]	; (2078 <__swbuf_r+0x9c>)
    1ff0:	429c      	cmp	r4, r3
    1ff2:	d101      	bne.n	1ff8 <__swbuf_r+0x1c>
    1ff4:	6874      	ldr	r4, [r6, #4]
    1ff6:	e008      	b.n	200a <__swbuf_r+0x2e>
    1ff8:	4b20      	ldr	r3, [pc, #128]	; (207c <__swbuf_r+0xa0>)
    1ffa:	429c      	cmp	r4, r3
    1ffc:	d101      	bne.n	2002 <__swbuf_r+0x26>
    1ffe:	68b4      	ldr	r4, [r6, #8]
    2000:	e003      	b.n	200a <__swbuf_r+0x2e>
    2002:	4b1f      	ldr	r3, [pc, #124]	; (2080 <__swbuf_r+0xa4>)
    2004:	429c      	cmp	r4, r3
    2006:	bf08      	it	eq
    2008:	68f4      	ldreq	r4, [r6, #12]
    200a:	69a3      	ldr	r3, [r4, #24]
    200c:	60a3      	str	r3, [r4, #8]
    200e:	89a3      	ldrh	r3, [r4, #12]
    2010:	071a      	lsls	r2, r3, #28
    2012:	d509      	bpl.n	2028 <__swbuf_r+0x4c>
    2014:	6923      	ldr	r3, [r4, #16]
    2016:	b13b      	cbz	r3, 2028 <__swbuf_r+0x4c>
    2018:	6823      	ldr	r3, [r4, #0]
    201a:	6920      	ldr	r0, [r4, #16]
    201c:	b2ed      	uxtb	r5, r5
    201e:	1a18      	subs	r0, r3, r0
    2020:	6963      	ldr	r3, [r4, #20]
    2022:	4298      	cmp	r0, r3
    2024:	db0f      	blt.n	2046 <__swbuf_r+0x6a>
    2026:	e008      	b.n	203a <__swbuf_r+0x5e>
    2028:	4630      	mov	r0, r6
    202a:	4621      	mov	r1, r4
    202c:	f000 f83c 	bl	20a8 <__swsetup_r>
    2030:	2800      	cmp	r0, #0
    2032:	d0f1      	beq.n	2018 <__swbuf_r+0x3c>
    2034:	f04f 30ff 	mov.w	r0, #4294967295	; 0xffffffff
    2038:	bd70      	pop	{r4, r5, r6, pc}
    203a:	4630      	mov	r0, r6
    203c:	4621      	mov	r1, r4
    203e:	f000 f933 	bl	22a8 <_fflush_r>
    2042:	2800      	cmp	r0, #0
    2044:	d1f6      	bne.n	2034 <__swbuf_r+0x58>
    2046:	68a3      	ldr	r3, [r4, #8]
    2048:	3001      	adds	r0, #1
    204a:	3b01      	subs	r3, #1
    204c:	60a3      	str	r3, [r4, #8]
    204e:	6823      	ldr	r3, [r4, #0]
    2050:	1c5a      	adds	r2, r3, #1
    2052:	6022      	str	r2, [r4, #0]
    2054:	701d      	strb	r5, [r3, #0]
    2056:	6963      	ldr	r3, [r4, #20]
    2058:	4298      	cmp	r0, r3
    205a:	d004      	beq.n	2066 <__swbuf_r+0x8a>
    205c:	89a3      	ldrh	r3, [r4, #12]
    205e:	07db      	lsls	r3, r3, #31
    2060:	d507      	bpl.n	2072 <__swbuf_r+0x96>
    2062:	2d0a      	cmp	r5, #10
    2064:	d105      	bne.n	2072 <__swbuf_r+0x96>
    2066:	4630      	mov	r0, r6
    2068:	4621      	mov	r1, r4
    206a:	f000 f91d 	bl	22a8 <_fflush_r>
    206e:	2800      	cmp	r0, #0
    2070:	d1e0      	bne.n	2034 <__swbuf_r+0x58>
    2072:	4628      	mov	r0, r5
    2074:	bd70      	pop	{r4, r5, r6, pc}
    2076:	bf00      	nop
    2078:	00002918 	andeq	r2, r0, r8, lsl r9
    207c:	00002938 	andeq	r2, r0, r8, lsr r9
    2080:	00002958 	andeq	r2, r0, r8, asr r9

00002084 <_write_r>:
    2084:	b538      	push	{r3, r4, r5, lr}
    2086:	4c07      	ldr	r4, [pc, #28]	; (20a4 <_write_r+0x20>)
    2088:	4605      	mov	r5, r0
    208a:	2000      	movs	r0, #0
    208c:	6020      	str	r0, [r4, #0]
    208e:	4608      	mov	r0, r1
    2090:	4611      	mov	r1, r2
    2092:	461a      	mov	r2, r3
    2094:	f7fe f90a 	bl	2ac <_write>
    2098:	1c43      	adds	r3, r0, #1
    209a:	d102      	bne.n	20a2 <_write_r+0x1e>
    209c:	6823      	ldr	r3, [r4, #0]
    209e:	b103      	cbz	r3, 20a2 <_write_r+0x1e>
    20a0:	602b      	str	r3, [r5, #0]
    20a2:	bd38      	pop	{r3, r4, r5, pc}
    20a4:	10000378 	andne	r0, r0, r8, ror r3

000020a8 <__swsetup_r>:
    20a8:	4b31      	ldr	r3, [pc, #196]	; (2170 <__swsetup_r+0xc8>)
    20aa:	b570      	push	{r4, r5, r6, lr}
    20ac:	681d      	ldr	r5, [r3, #0]
    20ae:	4606      	mov	r6, r0
    20b0:	460c      	mov	r4, r1
    20b2:	b125      	cbz	r5, 20be <__swsetup_r+0x16>
    20b4:	69ab      	ldr	r3, [r5, #24]
    20b6:	b913      	cbnz	r3, 20be <__swsetup_r+0x16>
    20b8:	4628      	mov	r0, r5
    20ba:	f7ff faf1 	bl	16a0 <__sinit>
    20be:	4b2d      	ldr	r3, [pc, #180]	; (2174 <__swsetup_r+0xcc>)
    20c0:	429c      	cmp	r4, r3
    20c2:	d101      	bne.n	20c8 <__swsetup_r+0x20>
    20c4:	686c      	ldr	r4, [r5, #4]
    20c6:	e008      	b.n	20da <__swsetup_r+0x32>
    20c8:	4b2b      	ldr	r3, [pc, #172]	; (2178 <__swsetup_r+0xd0>)
    20ca:	429c      	cmp	r4, r3
    20cc:	d101      	bne.n	20d2 <__swsetup_r+0x2a>
    20ce:	68ac      	ldr	r4, [r5, #8]
    20d0:	e003      	b.n	20da <__swsetup_r+0x32>
    20d2:	4b2a      	ldr	r3, [pc, #168]	; (217c <__swsetup_r+0xd4>)
    20d4:	429c      	cmp	r4, r3
    20d6:	bf08      	it	eq
    20d8:	68ec      	ldreq	r4, [r5, #12]
    20da:	89a3      	ldrh	r3, [r4, #12]
    20dc:	b29a      	uxth	r2, r3
    20de:	0711      	lsls	r1, r2, #28
    20e0:	d41d      	bmi.n	211e <__swsetup_r+0x76>
    20e2:	06d5      	lsls	r5, r2, #27
    20e4:	d402      	bmi.n	20ec <__swsetup_r+0x44>
    20e6:	2209      	movs	r2, #9
    20e8:	6032      	str	r2, [r6, #0]
    20ea:	e038      	b.n	215e <__swsetup_r+0xb6>
    20ec:	0750      	lsls	r0, r2, #29
    20ee:	d512      	bpl.n	2116 <__swsetup_r+0x6e>
    20f0:	6b61      	ldr	r1, [r4, #52]	; 0x34
    20f2:	b141      	cbz	r1, 2106 <__swsetup_r+0x5e>
    20f4:	f104 0344 	add.w	r3, r4, #68	; 0x44
    20f8:	4299      	cmp	r1, r3
    20fa:	d002      	beq.n	2102 <__swsetup_r+0x5a>
    20fc:	4630      	mov	r0, r6
    20fe:	f7ff fbb1 	bl	1864 <_free_r>
    2102:	2300      	movs	r3, #0
    2104:	6363      	str	r3, [r4, #52]	; 0x34
    2106:	89a3      	ldrh	r3, [r4, #12]
    2108:	f023 0324 	bic.w	r3, r3, #36	; 0x24
    210c:	81a3      	strh	r3, [r4, #12]
    210e:	2300      	movs	r3, #0
    2110:	6063      	str	r3, [r4, #4]
    2112:	6923      	ldr	r3, [r4, #16]
    2114:	6023      	str	r3, [r4, #0]
    2116:	89a3      	ldrh	r3, [r4, #12]
    2118:	f043 0308 	orr.w	r3, r3, #8
    211c:	81a3      	strh	r3, [r4, #12]
    211e:	6923      	ldr	r3, [r4, #16]
    2120:	b94b      	cbnz	r3, 2136 <__swsetup_r+0x8e>
    2122:	89a3      	ldrh	r3, [r4, #12]
    2124:	f403 7320 	and.w	r3, r3, #640	; 0x280
    2128:	f5b3 7f00 	cmp.w	r3, #512	; 0x200
    212c:	d003      	beq.n	2136 <__swsetup_r+0x8e>
    212e:	4630      	mov	r0, r6
    2130:	4621      	mov	r1, r4
    2132:	f000 f8f5 	bl	2320 <__smakebuf_r>
    2136:	89a3      	ldrh	r3, [r4, #12]
    2138:	f013 0201 	ands.w	r2, r3, #1
    213c:	d005      	beq.n	214a <__swsetup_r+0xa2>
    213e:	2200      	movs	r2, #0
    2140:	60a2      	str	r2, [r4, #8]
    2142:	6962      	ldr	r2, [r4, #20]
    2144:	4252      	negs	r2, r2
    2146:	61a2      	str	r2, [r4, #24]
    2148:	e003      	b.n	2152 <__swsetup_r+0xaa>
    214a:	0799      	lsls	r1, r3, #30
    214c:	bf58      	it	pl
    214e:	6962      	ldrpl	r2, [r4, #20]
    2150:	60a2      	str	r2, [r4, #8]
    2152:	6922      	ldr	r2, [r4, #16]
    2154:	b94a      	cbnz	r2, 216a <__swsetup_r+0xc2>
    2156:	f003 0080 	and.w	r0, r3, #128	; 0x80
    215a:	b280      	uxth	r0, r0
    215c:	b130      	cbz	r0, 216c <__swsetup_r+0xc4>
    215e:	f043 0340 	orr.w	r3, r3, #64	; 0x40
    2162:	81a3      	strh	r3, [r4, #12]
    2164:	f04f 30ff 	mov.w	r0, #4294967295	; 0xffffffff
    2168:	bd70      	pop	{r4, r5, r6, pc}
    216a:	2000      	movs	r0, #0
    216c:	bd70      	pop	{r4, r5, r6, pc}
    216e:	bf00      	nop
    2170:	10000130 	andne	r0, r0, r0, lsr r1
    2174:	00002918 	andeq	r2, r0, r8, lsl r9
    2178:	00002938 	andeq	r2, r0, r8, lsr r9
    217c:	00002958 	andeq	r2, r0, r8, asr r9

00002180 <_close_r>:
    2180:	b538      	push	{r3, r4, r5, lr}
    2182:	4c06      	ldr	r4, [pc, #24]	; (219c <_close_r+0x1c>)
    2184:	2300      	movs	r3, #0
    2186:	4605      	mov	r5, r0
    2188:	4608      	mov	r0, r1
    218a:	6023      	str	r3, [r4, #0]
    218c:	f7fe f878 	bl	280 <_close>
    2190:	1c43      	adds	r3, r0, #1
    2192:	d102      	bne.n	219a <_close_r+0x1a>
    2194:	6823      	ldr	r3, [r4, #0]
    2196:	b103      	cbz	r3, 219a <_close_r+0x1a>
    2198:	602b      	str	r3, [r5, #0]
    219a:	bd38      	pop	{r3, r4, r5, pc}
    219c:	10000378 	andne	r0, r0, r8, ror r3

000021a0 <__sflush_r>:
    21a0:	898a      	ldrh	r2, [r1, #12]
    21a2:	e92d 41f0 	stmdb	sp!, {r4, r5, r6, r7, r8, lr}
    21a6:	4605      	mov	r5, r0
    21a8:	0710      	lsls	r0, r2, #28
    21aa:	460c      	mov	r4, r1
    21ac:	d457      	bmi.n	225e <__sflush_r+0xbe>
    21ae:	684b      	ldr	r3, [r1, #4]
    21b0:	2b00      	cmp	r3, #0
    21b2:	dc02      	bgt.n	21ba <__sflush_r+0x1a>
    21b4:	6c0b      	ldr	r3, [r1, #64]	; 0x40
    21b6:	2b00      	cmp	r3, #0
    21b8:	dd18      	ble.n	21ec <__sflush_r+0x4c>
    21ba:	6ae6      	ldr	r6, [r4, #44]	; 0x2c
    21bc:	b1b6      	cbz	r6, 21ec <__sflush_r+0x4c>
    21be:	f402 5280 	and.w	r2, r2, #4096	; 0x1000
    21c2:	2300      	movs	r3, #0
    21c4:	b292      	uxth	r2, r2
    21c6:	682f      	ldr	r7, [r5, #0]
    21c8:	602b      	str	r3, [r5, #0]
    21ca:	b10a      	cbz	r2, 21d0 <__sflush_r+0x30>
    21cc:	6d62      	ldr	r2, [r4, #84]	; 0x54
    21ce:	e010      	b.n	21f2 <__sflush_r+0x52>
    21d0:	6a21      	ldr	r1, [r4, #32]
    21d2:	4628      	mov	r0, r5
    21d4:	2301      	movs	r3, #1
    21d6:	47b0      	blx	r6
    21d8:	1c41      	adds	r1, r0, #1
    21da:	4602      	mov	r2, r0
    21dc:	d109      	bne.n	21f2 <__sflush_r+0x52>
    21de:	682b      	ldr	r3, [r5, #0]
    21e0:	b13b      	cbz	r3, 21f2 <__sflush_r+0x52>
    21e2:	2b1d      	cmp	r3, #29
    21e4:	d001      	beq.n	21ea <__sflush_r+0x4a>
    21e6:	2b16      	cmp	r3, #22
    21e8:	d146      	bne.n	2278 <__sflush_r+0xd8>
    21ea:	602f      	str	r7, [r5, #0]
    21ec:	2000      	movs	r0, #0
    21ee:	e8bd 81f0 	ldmia.w	sp!, {r4, r5, r6, r7, r8, pc}
    21f2:	89a3      	ldrh	r3, [r4, #12]
    21f4:	075b      	lsls	r3, r3, #29
    21f6:	d505      	bpl.n	2204 <__sflush_r+0x64>
    21f8:	6863      	ldr	r3, [r4, #4]
    21fa:	1ad2      	subs	r2, r2, r3
    21fc:	6b63      	ldr	r3, [r4, #52]	; 0x34
    21fe:	b10b      	cbz	r3, 2204 <__sflush_r+0x64>
    2200:	6c23      	ldr	r3, [r4, #64]	; 0x40
    2202:	1ad2      	subs	r2, r2, r3
    2204:	6ae6      	ldr	r6, [r4, #44]	; 0x2c
    2206:	2300      	movs	r3, #0
    2208:	4628      	mov	r0, r5
    220a:	6a21      	ldr	r1, [r4, #32]
    220c:	47b0      	blx	r6
    220e:	1c46      	adds	r6, r0, #1
    2210:	89a3      	ldrh	r3, [r4, #12]
    2212:	d105      	bne.n	2220 <__sflush_r+0x80>
    2214:	682a      	ldr	r2, [r5, #0]
    2216:	b11a      	cbz	r2, 2220 <__sflush_r+0x80>
    2218:	2a1d      	cmp	r2, #29
    221a:	d001      	beq.n	2220 <__sflush_r+0x80>
    221c:	2a16      	cmp	r2, #22
    221e:	d119      	bne.n	2254 <__sflush_r+0xb4>
    2220:	2200      	movs	r2, #0
    2222:	6062      	str	r2, [r4, #4]
    2224:	6922      	ldr	r2, [r4, #16]
    2226:	04d9      	lsls	r1, r3, #19
    2228:	6022      	str	r2, [r4, #0]
    222a:	d504      	bpl.n	2236 <__sflush_r+0x96>
    222c:	1c42      	adds	r2, r0, #1
    222e:	d101      	bne.n	2234 <__sflush_r+0x94>
    2230:	682b      	ldr	r3, [r5, #0]
    2232:	b903      	cbnz	r3, 2236 <__sflush_r+0x96>
    2234:	6560      	str	r0, [r4, #84]	; 0x54
    2236:	6b61      	ldr	r1, [r4, #52]	; 0x34
    2238:	602f      	str	r7, [r5, #0]
    223a:	2900      	cmp	r1, #0
    223c:	d0d6      	beq.n	21ec <__sflush_r+0x4c>
    223e:	f104 0344 	add.w	r3, r4, #68	; 0x44
    2242:	4299      	cmp	r1, r3
    2244:	d002      	beq.n	224c <__sflush_r+0xac>
    2246:	4628      	mov	r0, r5
    2248:	f7ff fb0c 	bl	1864 <_free_r>
    224c:	2000      	movs	r0, #0
    224e:	6360      	str	r0, [r4, #52]	; 0x34
    2250:	e8bd 81f0 	ldmia.w	sp!, {r4, r5, r6, r7, r8, pc}
    2254:	f043 0340 	orr.w	r3, r3, #64	; 0x40
    2258:	81a3      	strh	r3, [r4, #12]
    225a:	e8bd 81f0 	ldmia.w	sp!, {r4, r5, r6, r7, r8, pc}
    225e:	690f      	ldr	r7, [r1, #16]
    2260:	2f00      	cmp	r7, #0
    2262:	d0c3      	beq.n	21ec <__sflush_r+0x4c>
    2264:	0793      	lsls	r3, r2, #30
    2266:	680e      	ldr	r6, [r1, #0]
    2268:	bf0c      	ite	eq
    226a:	694b      	ldreq	r3, [r1, #20]
    226c:	2300      	movne	r3, #0
    226e:	ebc7 0806 	rsb	r8, r7, r6
    2272:	600f      	str	r7, [r1, #0]
    2274:	608b      	str	r3, [r1, #8]
    2276:	e012      	b.n	229e <__sflush_r+0xfe>
    2278:	89a3      	ldrh	r3, [r4, #12]
    227a:	f04f 30ff 	mov.w	r0, #4294967295	; 0xffffffff
    227e:	f043 0340 	orr.w	r3, r3, #64	; 0x40
    2282:	81a3      	strh	r3, [r4, #12]
    2284:	e8bd 81f0 	ldmia.w	sp!, {r4, r5, r6, r7, r8, pc}
    2288:	4628      	mov	r0, r5
    228a:	6a21      	ldr	r1, [r4, #32]
    228c:	463a      	mov	r2, r7
    228e:	4643      	mov	r3, r8
    2290:	6aa6      	ldr	r6, [r4, #40]	; 0x28
    2292:	47b0      	blx	r6
    2294:	2800      	cmp	r0, #0
    2296:	ddef      	ble.n	2278 <__sflush_r+0xd8>
    2298:	4407      	add	r7, r0
    229a:	ebc0 0808 	rsb	r8, r0, r8
    229e:	f1b8 0f00 	cmp.w	r8, #0
    22a2:	dcf1      	bgt.n	2288 <__sflush_r+0xe8>
    22a4:	e7a2      	b.n	21ec <__sflush_r+0x4c>
	...

000022a8 <_fflush_r>:
    22a8:	b538      	push	{r3, r4, r5, lr}
    22aa:	690b      	ldr	r3, [r1, #16]
    22ac:	4605      	mov	r5, r0
    22ae:	460c      	mov	r4, r1
    22b0:	b1db      	cbz	r3, 22ea <_fflush_r+0x42>
    22b2:	b118      	cbz	r0, 22bc <_fflush_r+0x14>
    22b4:	6983      	ldr	r3, [r0, #24]
    22b6:	b90b      	cbnz	r3, 22bc <_fflush_r+0x14>
    22b8:	f7ff f9f2 	bl	16a0 <__sinit>
    22bc:	4b0c      	ldr	r3, [pc, #48]	; (22f0 <_fflush_r+0x48>)
    22be:	429c      	cmp	r4, r3
    22c0:	d101      	bne.n	22c6 <_fflush_r+0x1e>
    22c2:	686c      	ldr	r4, [r5, #4]
    22c4:	e008      	b.n	22d8 <_fflush_r+0x30>
    22c6:	4b0b      	ldr	r3, [pc, #44]	; (22f4 <_fflush_r+0x4c>)
    22c8:	429c      	cmp	r4, r3
    22ca:	d101      	bne.n	22d0 <_fflush_r+0x28>
    22cc:	68ac      	ldr	r4, [r5, #8]
    22ce:	e003      	b.n	22d8 <_fflush_r+0x30>
    22d0:	4b09      	ldr	r3, [pc, #36]	; (22f8 <_fflush_r+0x50>)
    22d2:	429c      	cmp	r4, r3
    22d4:	bf08      	it	eq
    22d6:	68ec      	ldreq	r4, [r5, #12]
    22d8:	f9b4 300c 	ldrsh.w	r3, [r4, #12]
    22dc:	b12b      	cbz	r3, 22ea <_fflush_r+0x42>
    22de:	4628      	mov	r0, r5
    22e0:	4621      	mov	r1, r4
    22e2:	e8bd 4038 	ldmia.w	sp!, {r3, r4, r5, lr}
    22e6:	f7ff bf5b 	b.w	21a0 <__sflush_r>
    22ea:	2000      	movs	r0, #0
    22ec:	bd38      	pop	{r3, r4, r5, pc}
    22ee:	bf00      	nop
    22f0:	00002918 	andeq	r2, r0, r8, lsl r9
    22f4:	00002938 	andeq	r2, r0, r8, lsr r9
    22f8:	00002958 	andeq	r2, r0, r8, asr r9

000022fc <_lseek_r>:
    22fc:	b538      	push	{r3, r4, r5, lr}
    22fe:	4c07      	ldr	r4, [pc, #28]	; (231c <_lseek_r+0x20>)
    2300:	4605      	mov	r5, r0
    2302:	2000      	movs	r0, #0
    2304:	6020      	str	r0, [r4, #0]
    2306:	4608      	mov	r0, r1
    2308:	4611      	mov	r1, r2
    230a:	461a      	mov	r2, r3
    230c:	f7fe f830 	bl	370 <_lseek>
    2310:	1c43      	adds	r3, r0, #1
    2312:	d102      	bne.n	231a <_lseek_r+0x1e>
    2314:	6823      	ldr	r3, [r4, #0]
    2316:	b103      	cbz	r3, 231a <_lseek_r+0x1e>
    2318:	602b      	str	r3, [r5, #0]
    231a:	bd38      	pop	{r3, r4, r5, pc}
    231c:	10000378 	andne	r0, r0, r8, ror r3

00002320 <__smakebuf_r>:
    2320:	b5f0      	push	{r4, r5, r6, r7, lr}
    2322:	898b      	ldrh	r3, [r1, #12]
    2324:	b091      	sub	sp, #68	; 0x44
    2326:	079d      	lsls	r5, r3, #30
    2328:	4606      	mov	r6, r0
    232a:	460c      	mov	r4, r1
    232c:	d425      	bmi.n	237a <__smakebuf_r+0x5a>
    232e:	f9b1 100e 	ldrsh.w	r1, [r1, #14]
    2332:	2900      	cmp	r1, #0
    2334:	da08      	bge.n	2348 <__smakebuf_r+0x28>
    2336:	89a3      	ldrh	r3, [r4, #12]
    2338:	2500      	movs	r5, #0
    233a:	f013 0f80 	tst.w	r3, #128	; 0x80
    233e:	bf14      	ite	ne
    2340:	2740      	movne	r7, #64	; 0x40
    2342:	f44f 6780 	moveq.w	r7, #1024	; 0x400
    2346:	e00d      	b.n	2364 <__smakebuf_r+0x44>
    2348:	aa01      	add	r2, sp, #4
    234a:	f000 f847 	bl	23dc <_fstat_r>
    234e:	2800      	cmp	r0, #0
    2350:	dbf1      	blt.n	2336 <__smakebuf_r+0x16>
    2352:	9d02      	ldr	r5, [sp, #8]
    2354:	f44f 6780 	mov.w	r7, #1024	; 0x400
    2358:	f405 4570 	and.w	r5, r5, #61440	; 0xf000
    235c:	f5a5 5100 	sub.w	r1, r5, #8192	; 0x2000
    2360:	424d      	negs	r5, r1
    2362:	414d      	adcs	r5, r1
    2364:	4630      	mov	r0, r6
    2366:	4639      	mov	r1, r7
    2368:	f7ff fac0 	bl	18ec <_malloc_r>
    236c:	b960      	cbnz	r0, 2388 <__smakebuf_r+0x68>
    236e:	89a3      	ldrh	r3, [r4, #12]
    2370:	059a      	lsls	r2, r3, #22
    2372:	d41d      	bmi.n	23b0 <__smakebuf_r+0x90>
    2374:	f043 0302 	orr.w	r3, r3, #2
    2378:	81a3      	strh	r3, [r4, #12]
    237a:	f104 0347 	add.w	r3, r4, #71	; 0x47
    237e:	6023      	str	r3, [r4, #0]
    2380:	6123      	str	r3, [r4, #16]
    2382:	2301      	movs	r3, #1
    2384:	6163      	str	r3, [r4, #20]
    2386:	e013      	b.n	23b0 <__smakebuf_r+0x90>
    2388:	4b0a      	ldr	r3, [pc, #40]	; (23b4 <__smakebuf_r+0x94>)
    238a:	62b3      	str	r3, [r6, #40]	; 0x28
    238c:	89a3      	ldrh	r3, [r4, #12]
    238e:	6020      	str	r0, [r4, #0]
    2390:	f043 0380 	orr.w	r3, r3, #128	; 0x80
    2394:	81a3      	strh	r3, [r4, #12]
    2396:	6120      	str	r0, [r4, #16]
    2398:	6167      	str	r7, [r4, #20]
    239a:	b14d      	cbz	r5, 23b0 <__smakebuf_r+0x90>
    239c:	4630      	mov	r0, r6
    239e:	f9b4 100e 	ldrsh.w	r1, [r4, #14]
    23a2:	f000 f82d 	bl	2400 <_isatty_r>
    23a6:	b118      	cbz	r0, 23b0 <__smakebuf_r+0x90>
    23a8:	89a3      	ldrh	r3, [r4, #12]
    23aa:	f043 0301 	orr.w	r3, r3, #1
    23ae:	81a3      	strh	r3, [r4, #12]
    23b0:	b011      	add	sp, #68	; 0x44
    23b2:	bdf0      	pop	{r4, r5, r6, r7, pc}
    23b4:	00001621 	andeq	r1, r0, r1, lsr #12

000023b8 <_read_r>:
    23b8:	b538      	push	{r3, r4, r5, lr}
    23ba:	4c07      	ldr	r4, [pc, #28]	; (23d8 <_read_r+0x20>)
    23bc:	4605      	mov	r5, r0
    23be:	2000      	movs	r0, #0
    23c0:	6020      	str	r0, [r4, #0]
    23c2:	4608      	mov	r0, r1
    23c4:	4611      	mov	r1, r2
    23c6:	461a      	mov	r2, r3
    23c8:	f7fd ff98 	bl	2fc <_read>
    23cc:	1c43      	adds	r3, r0, #1
    23ce:	d102      	bne.n	23d6 <_read_r+0x1e>
    23d0:	6823      	ldr	r3, [r4, #0]
    23d2:	b103      	cbz	r3, 23d6 <_read_r+0x1e>
    23d4:	602b      	str	r3, [r5, #0]
    23d6:	bd38      	pop	{r3, r4, r5, pc}
    23d8:	10000378 	andne	r0, r0, r8, ror r3

000023dc <_fstat_r>:
    23dc:	b538      	push	{r3, r4, r5, lr}
    23de:	4c07      	ldr	r4, [pc, #28]	; (23fc <_fstat_r+0x20>)
    23e0:	2300      	movs	r3, #0
    23e2:	4605      	mov	r5, r0
    23e4:	4608      	mov	r0, r1
    23e6:	4611      	mov	r1, r2
    23e8:	6023      	str	r3, [r4, #0]
    23ea:	f7fd ffd5 	bl	398 <_fstat>
    23ee:	1c43      	adds	r3, r0, #1
    23f0:	d102      	bne.n	23f8 <_fstat_r+0x1c>
    23f2:	6823      	ldr	r3, [r4, #0]
    23f4:	b103      	cbz	r3, 23f8 <_fstat_r+0x1c>
    23f6:	602b      	str	r3, [r5, #0]
    23f8:	bd38      	pop	{r3, r4, r5, pc}
    23fa:	bf00      	nop
    23fc:	10000378 	andne	r0, r0, r8, ror r3

00002400 <_isatty_r>:
    2400:	b538      	push	{r3, r4, r5, lr}
    2402:	4c06      	ldr	r4, [pc, #24]	; (241c <_isatty_r+0x1c>)
    2404:	2300      	movs	r3, #0
    2406:	4605      	mov	r5, r0
    2408:	4608      	mov	r0, r1
    240a:	6023      	str	r3, [r4, #0]
    240c:	f7fd ff9c 	bl	348 <_isatty>
    2410:	1c43      	adds	r3, r0, #1
    2412:	d102      	bne.n	241a <_isatty_r+0x1a>
    2414:	6823      	ldr	r3, [r4, #0]
    2416:	b103      	cbz	r3, 241a <_isatty_r+0x1a>
    2418:	602b      	str	r3, [r5, #0]
    241a:	bd38      	pop	{r3, r4, r5, pc}
    241c:	10000378 	andne	r0, r0, r8, ror r3

00002420 <_exit>:
    2420:	e7fe      	b.n	2420 <_exit>
    2422:	bf00      	nop

00002424 <_init>:
    2424:	b5f8      	push	{r3, r4, r5, r6, r7, lr}
    2426:	bf00      	nop
    2428:	bcf8      	pop	{r3, r4, r5, r6, r7}
    242a:	bc08      	pop	{r3}
    242c:	469e      	mov	lr, r3
    242e:	4770      	bx	lr

00002430 <_fini>:
    2430:	b5f8      	push	{r3, r4, r5, r6, r7, lr}
    2432:	bf00      	nop
    2434:	bcf8      	pop	{r3, r4, r5, r6, r7}
    2436:	bc08      	pop	{r3}
    2438:	469e      	mov	lr, r3
    243a:	4770      	bx	lr
    243c:	2d6a626f 	sfmcs	f6, 2, [sl, #-444]!	; 0xfffffe44
    2440:	6e69703e 	mcrvs	0, 3, r7, cr9, cr14, {1}
    2444:	203d2120 	eorscs	r2, sp, r0, lsr #2
    2448:	6e695028 	cdpvs	0, 6, cr5, cr9, cr8, {1}
    244c:	656d614e 	strbvs	r6, [sp, #-334]!	; 0x14e
    2450:	00434e29 	subeq	r4, r3, r9, lsr #28
    2454:	435c3a43 	cmpmi	ip, #274432	; 0x43000
    2458:	5c65646f 	cfstrdpl	mvd6, [r5], #-444	; 0xfffffe44
    245c:	5f746967 	svcpl	0x00746967
    2460:	6f706572 	svcvs	0x00706572
    2464:	7469675c 	strbtvc	r6, [r9], #-1884	; 0x75c
    2468:	5c627568 	cfstr64pl	mvdx7, [r2], #-416	; 0xfffffe60
    246c:	6465626d 	strbtvs	r6, [r5], #-621	; 0x26d
    2470:	66666f2d 	strbtvs	r6, [r6], -sp, lsr #30
    2474:	61696369 	cmnvs	r9, r9, ror #6
    2478:	75625c6c 	strbvc	r5, [r2, #-3180]!	; 0xc6c
    247c:	5c646c69 	stclpl	12, cr6, [r4], #-420	; 0xfffffe5c
    2480:	6465626d 	strbtvs	r6, [r5], #-621	; 0x26d
    2484:	5241545c 	subpl	r5, r1, #92, 8	; 0x5c000000
    2488:	5f544547 	svcpl	0x00544547
    248c:	3143504c 	cmpcc	r3, ip, asr #32
    2490:	5c383637 	ldcpl	6, cr3, [r8], #-220	; 0xffffff24
    2494:	47524154 			; <UNDEFINED> instruction: 0x47524154
    2498:	4e5f5445 	cdpmi	4, 5, cr5, cr15, cr5, {2}
    249c:	545c5058 	ldrbpl	r5, [ip], #-88	; 0x58
    24a0:	45475241 	strbmi	r5, [r7, #-577]	; 0x241
    24a4:	504c5f54 	subpl	r5, ip, r4, asr pc
    24a8:	36373143 	ldrtcc	r3, [r7], -r3, asr #2
    24ac:	70672f58 	rsbvc	r2, r7, r8, asr pc
    24b0:	6f5f6f69 	svcvs	0x005f6f69
    24b4:	63656a62 	cmnvs	r5, #401408	; 0x62000
    24b8:	00682e74 	rsbeq	r2, r8, r4, ror lr

000024bc <PinMap_UART_RTS>:
    24bc:	2009c016 	andcs	ip, r9, r6, lsl r0
    24c0:	40010000 	andmi	r0, r1, r0
    24c4:	00000001 	andeq	r0, r0, r1
    24c8:	2009c047 	andcs	ip, r9, r7, asr #32
    24cc:	40010000 	andmi	r0, r1, r0
    24d0:	00000002 	andeq	r0, r0, r2
    24d4:	ffffffff 			; <UNDEFINED> instruction: 0xffffffff
    24d8:	ffffffff 			; <UNDEFINED> instruction: 0xffffffff
    24dc:	00000000 	andeq	r0, r0, r0

000024e0 <CSWTCH.24>:
    24e0:	00000000 	andeq	r0, r0, r0
    24e4:	00000001 	andeq	r0, r0, r1
    24e8:	00000002 	andeq	r0, r0, r2
    24ec:	00000003 	andeq	r0, r0, r3

000024f0 <PinMap_UART_RX>:
    24f0:	2009c001 	andcs	ip, r9, r1
    24f4:	4009c000 	andmi	ip, r9, r0
    24f8:	00000002 	andeq	r0, r0, r2
    24fc:	2009c003 	andcs	ip, r9, r3
    2500:	4000c000 	andmi	ip, r0, r0
    2504:	00000001 	andeq	r0, r0, r1
    2508:	2009c00b 	andcs	ip, r9, fp
    250c:	40098000 	andmi	r8, r9, r0
    2510:	00000001 	andeq	r0, r0, r1
    2514:	2009c010 	andcs	ip, r9, r0, lsl r0
    2518:	40010000 	andmi	r0, r1, r0
    251c:	00000001 	andeq	r0, r0, r1
    2520:	2009c01a 	andcs	ip, r9, sl, lsl r0
    2524:	4009c000 	andmi	ip, r9, r0
    2528:	00000003 	andeq	r0, r0, r3
    252c:	2009c041 	andcs	ip, r9, r1, asr #32
    2530:	40010000 	andmi	r0, r1, r0
    2534:	00000002 	andeq	r0, r0, r2
    2538:	2009c049 	andcs	ip, r9, r9, asr #32
    253c:	40098000 	andmi	r8, r9, r0
    2540:	00000002 	andeq	r0, r0, r2
    2544:	2009c09d 	mulcs	r9, sp, r0
    2548:	4009c000 	andmi	ip, r9, r0
    254c:	00000003 	andeq	r0, r0, r3
    2550:	ffffffff 			; <UNDEFINED> instruction: 0xffffffff
    2554:	ffffffff 			; <UNDEFINED> instruction: 0xffffffff
    2558:	00000000 	andeq	r0, r0, r0
    255c:	746e6928 	strbtvc	r6, [lr], #-2344	; 0x928
    2560:	6a626f29 	bvs	189e20c <__etext+0x189b84c>
    2564:	61753e2d 	cmnvs	r5, sp, lsr #28
    2568:	3c207472 	cfstrscc	mvf7, [r0], #-456	; 0xfffffe38
    256c:	4155203d 	cmpmi	r5, sp, lsr r0
    2570:	335f5452 	cmpcc	pc, #1375731712	; 0x52000000
    2574:	00000000 	andeq	r0, r0, r0
    2578:	435c3a43 	cmpmi	ip, #274432	; 0x43000
    257c:	5c65646f 	cfstrdpl	mvd6, [r5], #-444	; 0xfffffe44
    2580:	5f746967 	svcpl	0x00746967
    2584:	6f706572 	svcvs	0x00706572
    2588:	7469675c 	strbtvc	r6, [r9], #-1884	; 0x75c
    258c:	5c627568 	cfstr64pl	mvdx7, [r2], #-416	; 0xfffffe60
    2590:	6465626d 	strbtvs	r6, [r5], #-621	; 0x26d
    2594:	66666f2d 	strbtvs	r6, [r6], -sp, lsr #30
    2598:	61696369 	cmnvs	r9, r9, ror #6
    259c:	696c5c6c 	stmdbvs	ip!, {r2, r3, r5, r6, sl, fp, ip, lr}^
    25a0:	72617262 	rsbvc	r7, r1, #536870918	; 0x20000006
    25a4:	5c736569 	cfldr64pl	mvdx6, [r3], #-420	; 0xfffffe5c
    25a8:	6465626d 	strbtvs	r6, [r5], #-621	; 0x26d
    25ac:	7261745c 	rsbvc	r7, r1, #92, 8	; 0x5c000000
    25b0:	73746567 	cmnvc	r4, #432013312	; 0x19c00000
    25b4:	6c61685c 	stclvs	8, cr6, [r1], #-368	; 0xfffffe90
    25b8:	5241545c 	subpl	r5, r1, #92, 8	; 0x5c000000
    25bc:	5f544547 	svcpl	0x00544547
    25c0:	5c50584e 	mrrcpl	8, 4, r5, r0, cr14
    25c4:	47524154 			; <UNDEFINED> instruction: 0x47524154
    25c8:	4c5f5445 	cfldrdmi	mvd5, [pc], {69}	; 0x45
    25cc:	37314350 			; <UNDEFINED> instruction: 0x37314350
    25d0:	735c5836 	cmpvc	ip, #3538944	; 0x360000
    25d4:	61697265 	cmnvs	r9, r5, ror #4
    25d8:	70615f6c 	rsbvc	r5, r1, ip, ror #30
    25dc:	00632e69 	rsbeq	r2, r3, r9, ror #28
    25e0:	6f747328 	svcvs	0x00747328
    25e4:	69625f70 	stmdbvs	r2!, {r4, r5, r6, r8, r9, sl, fp, ip, lr}^
    25e8:	3d207374 	stccc	3, cr7, [r0, #-464]!	; 0xfffffe30
    25ec:	2931203d 	ldmdbcs	r1!, {r0, r2, r3, r4, r5, sp}
    25f0:	207c7c20 	rsbscs	r7, ip, r0, lsr #24
    25f4:	6f747328 	svcvs	0x00747328
    25f8:	69625f70 	stmdbvs	r2!, {r4, r5, r6, r8, r9, sl, fp, ip, lr}^
    25fc:	3d207374 	stccc	3, cr7, [r0, #-464]!	; 0xfffffe30
    2600:	2932203d 	ldmdbcs	r2!, {r0, r2, r3, r4, r5, sp}
    2604:	00000000 	andeq	r0, r0, r0
    2608:	74616428 	strbtvc	r6, [r1], #-1064	; 0x428
    260c:	69625f61 	stmdbvs	r2!, {r0, r5, r6, r8, r9, sl, fp, ip, lr}^
    2610:	3e207374 	mcrcc	3, 1, r7, cr0, cr4, {3}
    2614:	20293420 	eorcs	r3, r9, r0, lsr #8
    2618:	28202626 	stmdacs	r0!, {r1, r2, r5, r9, sl, sp}
    261c:	61746164 	cmnvs	r4, r4, ror #2
    2620:	7469625f 	strbtvc	r6, [r9], #-607	; 0x25f
    2624:	203c2073 	eorscs	r2, ip, r3, ror r0
    2628:	00002939 	andeq	r2, r0, r9, lsr r9
    262c:	72617028 	rsbvc	r7, r1, #40	; 0x28
    2630:	20797469 	rsbscs	r7, r9, r9, ror #8
    2634:	50203d3d 	eorpl	r3, r0, sp, lsr sp
    2638:	74697261 	strbtvc	r7, [r9], #-609	; 0x261
    263c:	6e6f4e79 	mcrvs	14, 3, r4, cr15, cr9, {3}
    2640:	7c202965 	stcvc	9, cr2, [r0], #-404	; 0xfffffe6c
    2644:	7028207c 	eorvc	r2, r8, ip, ror r0
    2648:	74697261 	strbtvc	r7, [r9], #-609	; 0x261
    264c:	3d3d2079 	ldccc	0, cr2, [sp, #-484]!	; 0xfffffe1c
    2650:	72615020 	rsbvc	r5, r1, #32
    2654:	4f797469 	svcmi	0x00797469
    2658:	20296464 	eorcs	r6, r9, r4, ror #8
    265c:	28207c7c 	stmdacs	r0!, {r2, r3, r4, r5, r6, sl, fp, ip, sp, lr}
    2660:	69726170 	ldmdbvs	r2!, {r4, r5, r6, r8, sp, lr}^
    2664:	3d207974 	stccc	9, cr7, [r0, #-464]!	; 0xfffffe30
    2668:	6150203d 	cmpvs	r0, sp, lsr r0
    266c:	79746972 	ldmdbvc	r4!, {r1, r4, r5, r6, r8, fp, sp, lr}^
    2670:	6e657645 	cdpvs	6, 6, cr7, cr5, cr5, {2}
    2674:	7c7c2029 	ldclvc	0, cr2, [ip], #-164	; 0xffffff5c
    2678:	61702820 	cmnvs	r0, r0, lsr #16
    267c:	79746972 	ldmdbvc	r4!, {r1, r4, r5, r6, r8, fp, sp, lr}^
    2680:	203d3d20 	eorscs	r3, sp, r0, lsr #26
    2684:	69726150 	ldmdbvs	r2!, {r4, r6, r8, sp, lr}^
    2688:	6f467974 	svcvs	0x00467974
    268c:	64656372 	strbtvs	r6, [r5], #-882	; 0x372
    2690:	7c202931 	stcvc	9, cr2, [r0], #-196	; 0xffffff3c
    2694:	7028207c 	eorvc	r2, r8, ip, ror r0
    2698:	74697261 	strbtvc	r7, [r9], #-609	; 0x261
    269c:	3d3d2079 	ldccc	0, cr2, [sp, #-484]!	; 0xfffffe1c
    26a0:	72615020 	rsbvc	r5, r1, #32
    26a4:	46797469 	ldrbtmi	r7, [r9], -r9, ror #8
    26a8:	6563726f 	strbvs	r7, [r3, #-623]!	; 0x26f
    26ac:	00293064 	eoreq	r3, r9, r4, rrx
    26b0:	435c3a43 	cmpmi	ip, #274432	; 0x43000
    26b4:	5c65646f 	cfstrdpl	mvd6, [r5], #-444	; 0xfffffe44
    26b8:	5f746967 	svcpl	0x00746967
    26bc:	6f706572 	svcvs	0x00706572
    26c0:	7469675c 	strbtvc	r6, [r9], #-1884	; 0x75c
    26c4:	5c627568 	cfstr64pl	mvdx7, [r2], #-416	; 0xfffffe60
    26c8:	6465626d 	strbtvs	r6, [r5], #-621	; 0x26d
    26cc:	66666f2d 	strbtvs	r6, [r6], -sp, lsr #30
    26d0:	61696369 	cmnvs	r9, r9, ror #6
    26d4:	696c5c6c 	stmdbvs	ip!, {r2, r3, r5, r6, sl, fp, ip, lr}^
    26d8:	72617262 	rsbvc	r7, r1, #536870918	; 0x20000006
    26dc:	5c736569 	cfldr64pl	mvdx6, [r3], #-420	; 0xfffffe5c
    26e0:	6465626d 	strbtvs	r6, [r5], #-621	; 0x26d
    26e4:	7261745c 	rsbvc	r7, r1, #92, 8	; 0x5c000000
    26e8:	73746567 	cmnvc	r4, #432013312	; 0x19c00000
    26ec:	6c61685c 	stclvs	8, cr6, [r1], #-368	; 0xfffffe90
    26f0:	5241545c 	subpl	r5, r1, #92, 8	; 0x5c000000
    26f4:	5f544547 	svcpl	0x00544547
    26f8:	5c50584e 	mrrcpl	8, 4, r5, r0, cr14
    26fc:	47524154 			; <UNDEFINED> instruction: 0x47524154
    2700:	4c5f5445 	cfldrdmi	mvd5, [pc], {69}	; 0x45
    2704:	37314350 			; <UNDEFINED> instruction: 0x37314350
    2708:	672f5836 			; <UNDEFINED> instruction: 0x672f5836
    270c:	5f6f6970 	svcpl	0x006f6970
    2710:	656a626f 	strbvs	r6, [sl, #-623]!	; 0x26f
    2714:	682e7463 	stmdavs	lr!, {r0, r1, r5, r6, sl, ip, sp, lr}
    2718:	00000000 	andeq	r0, r0, r0
    271c:	746e6928 	strbtvc	r6, [lr], #-2344	; 0x928
    2720:	72617529 	rsbvc	r7, r1, #171966464	; 0xa400000
    2724:	3d212074 	stccc	0, cr2, [r1, #-464]!	; 0xfffffe30
    2728:	00434e20 	subeq	r4, r3, r0, lsr #28

0000272c <PinMap_UART_TX>:
    272c:	2009c000 	andcs	ip, r9, r0
    2730:	4009c000 	andmi	ip, r9, r0
    2734:	00000002 	andeq	r0, r0, r2
    2738:	2009c002 	andcs	ip, r9, r2
    273c:	4000c000 	andmi	ip, r0, r0
    2740:	00000001 	andeq	r0, r0, r1
    2744:	2009c00a 	andcs	ip, r9, sl
    2748:	40098000 	andmi	r8, r9, r0
    274c:	00000001 	andeq	r0, r0, r1
    2750:	2009c00f 	andcs	ip, r9, pc
    2754:	40010000 	andmi	r0, r1, r0
    2758:	00000001 	andeq	r0, r0, r1
    275c:	2009c019 	andcs	ip, r9, r9, lsl r0
    2760:	4009c000 	andmi	ip, r9, r0
    2764:	00000003 	andeq	r0, r0, r3
    2768:	2009c040 	andcs	ip, r9, r0, asr #32
    276c:	40010000 	andmi	r0, r1, r0
    2770:	00000002 	andeq	r0, r0, r2
    2774:	2009c048 	andcs	ip, r9, r8, asr #32
    2778:	40098000 	andmi	r8, r9, r0
    277c:	00000002 	andeq	r0, r0, r2
    2780:	2009c09c 	mulcs	r9, ip, r0
    2784:	4009c000 	andmi	ip, r9, r0
    2788:	00000003 	andeq	r0, r0, r3
    278c:	ffffffff 			; <UNDEFINED> instruction: 0xffffffff
    2790:	ffffffff 			; <UNDEFINED> instruction: 0xffffffff
    2794:	00000000 	andeq	r0, r0, r0

00002798 <PinMap_UART_CTS>:
    2798:	2009c011 	andcs	ip, r9, r1, lsl r0
    279c:	40010000 	andmi	r0, r1, r0
    27a0:	00000001 	andeq	r0, r0, r1
    27a4:	2009c042 	andcs	ip, r9, r2, asr #32
    27a8:	40010000 	andmi	r0, r1, r0
    27ac:	00000002 	andeq	r0, r0, r2
    27b0:	ffffffff 			; <UNDEFINED> instruction: 0xffffffff
    27b4:	ffffffff 			; <UNDEFINED> instruction: 0xffffffff
    27b8:	00000000 	andeq	r0, r0, r0
    27bc:	6465626d 	strbtvs	r6, [r5], #-621	; 0x26d
    27c0:	73736120 	cmnvc	r3, #32, 2
    27c4:	61747265 	cmnvs	r4, r5, ror #4
    27c8:	6e6f6974 	mcrvs	9, 3, r6, cr15, cr4, {3}
    27cc:	69616620 	stmdbvs	r1!, {r5, r9, sl, sp, lr}^
    27d0:	3a64656c 	bcc	191bd88 <__etext+0x19193c8>
    27d4:	2c732520 	cfldr64cs	mvdx2, [r3], #-128	; 0xffffff80
    27d8:	6c696620 	stclvs	6, cr6, [r9], #-128	; 0xffffff80
    27dc:	25203a65 	strcs	r3, [r0, #-2661]!	; 0xa65
    27e0:	6c202c73 	stcvs	12, cr2, [r0], #-460	; 0xfffffe34
    27e4:	20656e69 	rsbcs	r6, r5, r9, ror #28
    27e8:	0a206425 	beq	81b884 <__etext+0x818ec4>
    27ec:	00000000 	andeq	r0, r0, r0
    27f0:	6c756f63 	ldclvs	15, cr6, [r5], #-396	; 0xfffffe74
    27f4:	6f6e2064 	svcvs	0x006e2064
    27f8:	69702074 	ldmdbvs	r0!, {r2, r4, r5, r6, sp}^
    27fc:	74756f6e 	ldrbtvc	r6, [r5], #-3950	; 0xf6e
    2800:	00000000 	andeq	r0, r0, r0
    2804:	6d6e6970 	stclvs	9, cr6, [lr, #-448]!	; 0xfffffe40
    2808:	6d207061 	stcvs	0, cr7, [r0, #-388]!	; 0xfffffe7c
    280c:	6d2d7369 	stcvs	3, cr7, [sp, #-420]!	; 0xfffffe5c
    2810:	68637461 	stmdavs	r3!, {r0, r5, r6, sl, ip, sp, lr}^
    2814:	00000000 	andeq	r0, r0, r0
    2818:	6d6e6970 	stclvs	9, cr6, [lr, #-448]!	; 0xfffffe40
    281c:	6e207061 	cdpvs	0, 2, cr7, cr0, cr1, {3}
    2820:	6620746f 	strtvs	r7, [r0], -pc, ror #8
    2824:	646e756f 	strbtvs	r7, [lr], #-1391	; 0x56f
    2828:	726f6620 	rsbvc	r6, pc, #32, 12	; 0x2000000
    282c:	72657020 	rsbvc	r7, r5, #32
    2830:	65687069 	strbvs	r7, [r8, #-105]!	; 0x69
    2834:	006c6172 	rsbeq	r6, ip, r2, ror r1
    2838:	206e6970 	rsbcs	r6, lr, r0, ror r9
    283c:	28203d21 	stmdacs	r0!, {r0, r5, r8, sl, fp, ip, sp}
    2840:	4e6e6950 	mcrmi	9, 3, r6, cr14, cr0, {2}
    2844:	29656d61 	stmdbcs	r5!, {r0, r5, r6, r8, sl, fp, sp, lr}^
    2848:	0000434e 	andeq	r4, r0, lr, asr #6
    284c:	435c3a43 	cmpmi	ip, #274432	; 0x43000
    2850:	5c65646f 	cfstrdpl	mvd6, [r5], #-444	; 0xfffffe44
    2854:	5f746967 	svcpl	0x00746967
    2858:	6f706572 	svcvs	0x00706572
    285c:	7469675c 	strbtvc	r6, [r9], #-1884	; 0x75c
    2860:	5c627568 	cfstr64pl	mvdx7, [r2], #-416	; 0xfffffe60
    2864:	6465626d 	strbtvs	r6, [r5], #-621	; 0x26d
    2868:	66666f2d 	strbtvs	r6, [r6], -sp, lsr #30
    286c:	61696369 	cmnvs	r9, r9, ror #6
    2870:	696c5c6c 	stmdbvs	ip!, {r2, r3, r5, r6, sl, fp, ip, lr}^
    2874:	72617262 	rsbvc	r7, r1, #536870918	; 0x20000006
    2878:	5c736569 	cfldr64pl	mvdx6, [r3], #-420	; 0xfffffe5c
    287c:	6465626d 	strbtvs	r6, [r5], #-621	; 0x26d
    2880:	7261745c 	rsbvc	r7, r1, #92, 8	; 0x5c000000
    2884:	73746567 	cmnvc	r4, #432013312	; 0x19c00000
    2888:	6c61685c 	stclvs	8, cr6, [r1], #-368	; 0xfffffe90
    288c:	5241545c 	subpl	r5, r1, #92, 8	; 0x5c000000
    2890:	5f544547 	svcpl	0x00544547
    2894:	5c50584e 	mrrcpl	8, 4, r5, r0, cr14
    2898:	47524154 			; <UNDEFINED> instruction: 0x47524154
    289c:	4c5f5445 	cfldrdmi	mvd5, [pc], {69}	; 0x45
    28a0:	37314350 			; <UNDEFINED> instruction: 0x37314350
    28a4:	675c5836 	smmlarvs	ip, r6, r8, r5
    28a8:	5f6f6970 	svcpl	0x006f6970
    28ac:	2e697061 	cdpcs	0, 6, cr7, cr9, cr1, {3}
    28b0:	00000063 	andeq	r0, r0, r3, rrx
    28b4:	435c3a43 	cmpmi	ip, #274432	; 0x43000
    28b8:	5c65646f 	cfstrdpl	mvd6, [r5], #-444	; 0xfffffe44
    28bc:	5f746967 	svcpl	0x00746967
    28c0:	6f706572 	svcvs	0x00706572
    28c4:	7469675c 	strbtvc	r6, [r9], #-1884	; 0x75c
    28c8:	5c627568 	cfstr64pl	mvdx7, [r2], #-416	; 0xfffffe60
    28cc:	6465626d 	strbtvs	r6, [r5], #-621	; 0x26d
    28d0:	66666f2d 	strbtvs	r6, [r6], -sp, lsr #30
    28d4:	61696369 	cmnvs	r9, r9, ror #6
    28d8:	696c5c6c 	stmdbvs	ip!, {r2, r3, r5, r6, sl, fp, ip, lr}^
    28dc:	72617262 	rsbvc	r7, r1, #536870918	; 0x20000006
    28e0:	5c736569 	cfldr64pl	mvdx6, [r3], #-420	; 0xfffffe5c
    28e4:	6465626d 	strbtvs	r6, [r5], #-621	; 0x26d
    28e8:	7261745c 	rsbvc	r7, r1, #92, 8	; 0x5c000000
    28ec:	73746567 	cmnvc	r4, #432013312	; 0x19c00000
    28f0:	6c61685c 	stclvs	8, cr6, [r1], #-368	; 0xfffffe90
    28f4:	5241545c 	subpl	r5, r1, #92, 8	; 0x5c000000
    28f8:	5f544547 	svcpl	0x00544547
    28fc:	5c50584e 	mrrcpl	8, 4, r5, r0, cr14
    2900:	47524154 			; <UNDEFINED> instruction: 0x47524154
    2904:	4c5f5445 	cfldrdmi	mvd5, [pc], {69}	; 0x45
    2908:	37314350 			; <UNDEFINED> instruction: 0x37314350
    290c:	705c5836 	subsvc	r5, ip, r6, lsr r8
    2910:	616d6e69 	cmnvs	sp, r9, ror #28
    2914:	00632e70 	rsbeq	r2, r3, r0, ror lr

00002918 <__sf_fake_stdin>:
	...

00002938 <__sf_fake_stdout>:
	...

00002958 <__sf_fake_stderr>:
	...
    2978:	00000043 	andeq	r0, r0, r3, asr #32

0000297c <_global_impure_ptr>:
    297c:	100000d0 	ldrdne	r0, [r0], -r0	; <UNPREDICTABLE>
    2980:	2b302d23 	blcs	c0de14 <__etext+0xc0b454>
    2984:	6c680020 	stclvs	0, cr0, [r8], #-128	; 0xffffff80
    2988:	6665004c 	strbtvs	r0, [r5], -ip, asr #32
    298c:	47464567 	strbmi	r4, [r6, -r7, ror #10]
    2990:	32313000 	eorscc	r3, r1, #0
    2994:	36353433 			; <UNDEFINED> instruction: 0x36353433
    2998:	41393837 	teqmi	r9, r7, lsr r8
    299c:	45444342 	strbmi	r4, [r4, #-834]	; 0x342
    29a0:	31300046 	teqcc	r0, r6, asr #32
    29a4:	35343332 	ldrcc	r3, [r4, #-818]!	; 0x332
    29a8:	39383736 	ldmdbcc	r8!, {r1, r2, r4, r5, r8, r9, sl, ip, sp}
    29ac:	64636261 	strbtvs	r6, [r3], #-609	; 0x261
    29b0:	00006665 	andeq	r6, r0, r5, ror #12

000029b4 <__EH_FRAME_BEGIN__>:
    29b4:	00000000 	andeq	r0, r0, r0

Disassembly of section .ARM.exidx:

000029b8 <__etext-0x8>:
    29b8:	7fffd770 	svcvc	0x00ffd770
    29bc:	00000001 	andeq	r0, r0, r1

Disassembly of section .data:

100000c8 <Image$$RW_IRAM1$$Base>:
100000c8:	10000380 	andne	r0, r0, r0, lsl #7

100000cc <SystemCoreClock>:
100000cc:	05b8d800 	ldreq	sp, [r8, #2048]!	; 0x800

100000d0 <impure_data>:
100000d0:	00000000 	andeq	r0, r0, r0
100000d4:	00002918 	andeq	r2, r0, r8, lsl r9
100000d8:	00002938 	andeq	r2, r0, r8, lsr r9
100000dc:	00002958 	andeq	r2, r0, r8, asr r9
	...
100000f0:	00002978 	andeq	r2, r0, r8, ror r9
	...

10000130 <_impure_ptr>:
10000130:	100000d0 	ldrdne	r0, [r0], -r0	; <UNPREDICTABLE>

10000134 <__init_array_start>:
10000134:	000000f1 	strdeq	r0, [r0], -r1
10000138:	000001c5 	andeq	r0, r0, r5, asr #3

1000013c <__init_array_end>:
1000013c:	000000cd 	andeq	r0, r0, sp, asr #1

Disassembly of section .bss:

10000140 <__bss_start__>:
10000140:	00000000 	andeq	r0, r0, r0

10000144 <object.8024>:
	...

1000015c <myled>:
	...

10000174 <_ZL11filehandles>:
	...

10000274 <stdio_uart_inited>:
10000274:	00000000 	andeq	r0, r0, r0

10000278 <irq_handler>:
10000278:	00000000 	andeq	r0, r0, r0

1000027c <uart_data>:
	...

1000035c <us_ticker_inited>:
1000035c:	00000000 	andeq	r0, r0, r0

10000360 <head>:
10000360:	00000000 	andeq	r0, r0, r0

10000364 <event_handler>:
10000364:	00000000 	andeq	r0, r0, r0

10000368 <__malloc_sbrk_start>:
10000368:	00000000 	andeq	r0, r0, r0

1000036c <__malloc_free_list>:
1000036c:	00000000 	andeq	r0, r0, r0

10000370 <stdio_uart>:
	...

10000378 <errno>:
10000378:	00000000 	andeq	r0, r0, r0

Disassembly of section .heap:

10000380 <__HeapBase>:
	...

Disassembly of section .stack_dummy:

10000380 <.stack_dummy>:
	...

Disassembly of section .ARM.attributes:

00000000 <Image$$RW_IRAM2$$Base-0x2007c000>:
   0:	00002841 	andeq	r2, r0, r1, asr #16
   4:	61656100 	cmnvs	r5, r0, lsl #2
   8:	01006962 	tsteq	r0, r2, ror #18
   c:	0000001e 	andeq	r0, r0, lr, lsl r0
  10:	4d2d3705 	stcmi	7, cr3, [sp, #-20]!	; 0xffffffec
  14:	070a0600 	streq	r0, [sl, -r0, lsl #12]
  18:	1202094d 	andne	r0, r2, #1261568	; 0x134000
  1c:	15011404 	strne	r1, [r1, #-1028]	; 0x404
  20:	18031701 	stmdane	r3, {r0, r8, r9, sl, ip}
  24:	22011a01 	andcs	r1, r1, #4096	; 0x1000
  28:	Address 0x0000000000000028 is out of bounds.


Disassembly of section .comment:

00000000 <.comment>:
   0:	3a434347 	bcc	10d0d24 <__etext+0x10ce364>
   4:	4e472820 	cdpmi	8, 4, cr2, cr7, cr0, {1}
   8:	6f542055 	svcvs	0x00542055
   c:	20736c6f 	rsbscs	r6, r3, pc, ror #24
  10:	20726f66 	rsbscs	r6, r2, r6, ror #30
  14:	204d5241 	subcs	r5, sp, r1, asr #4
  18:	65626d45 	strbvs	r6, [r2, #-3397]!	; 0xd45
  1c:	64656464 	strbtvs	r6, [r5], #-1124	; 0x464
  20:	6f725020 	svcvs	0x00725020
  24:	73736563 	cmnvc	r3, #415236096	; 0x18c00000
  28:	2973726f 	ldmdbcs	r3!, {r0, r1, r2, r3, r5, r6, r9, ip, sp, lr}^
  2c:	392e3420 	stmdbcc	lr!, {r5, sl, ip, sp}
  30:	3220332e 	eorcc	r3, r0, #-1207959552	; 0xb8000000
  34:	31343130 	teqcc	r4, r0, lsr r1
  38:	20393131 	eorscs	r3, r9, r1, lsr r1
  3c:	6c657228 	sfmvs	f7, 2, [r5], #-160	; 0xffffff60
  40:	65736165 	ldrbvs	r6, [r3, #-357]!	; 0x165
  44:	415b2029 	cmpmi	fp, r9, lsr #32
  48:	652f4d52 	strvs	r4, [pc, #-3410]!	; fffff2fe <Image$$RW_IRAM3$$Base+0xdff7f2fe>
  4c:	6465626d 	strbtvs	r6, [r5], #-621	; 0x26d
  50:	2d646564 	cfstr64cs	mvdx6, [r4, #-400]!	; 0xfffffe70
  54:	2d395f34 	ldccs	15, cr5, [r9, #-208]!	; 0xffffff30
  58:	6e617262 	cdpvs	2, 6, cr7, cr1, cr2, {3}
  5c:	72206863 	eorvc	r6, r0, #6488064	; 0x630000
  60:	73697665 	cmnvc	r9, #105906176	; 0x6500000
  64:	206e6f69 	rsbcs	r6, lr, r9, ror #30
  68:	32383132 	eorscc	r3, r8, #-2147483636	; 0x8000000c
  6c:	005d3837 	subseq	r3, sp, r7, lsr r8
  70:	3a434347 	bcc	10d0d94 <__etext+0x10ce3d4>
  74:	4e472820 	cdpmi	8, 4, cr2, cr7, cr0, {1}
  78:	6f542055 	svcvs	0x00542055
  7c:	20736c6f 	rsbscs	r6, r3, pc, ror #24
  80:	20726f66 	rsbscs	r6, r2, r6, ror #30
  84:	204d5241 	subcs	r5, sp, r1, asr #4
  88:	65626d45 	strbvs	r6, [r2, #-3397]!	; 0xd45
  8c:	64656464 	strbtvs	r6, [r5], #-1124	; 0x464
  90:	6f725020 	svcvs	0x00725020
  94:	73736563 	cmnvc	r3, #415236096	; 0x18c00000
  98:	2973726f 	ldmdbcs	r3!, {r0, r1, r2, r3, r5, r6, r9, ip, sp, lr}^
  9c:	382e3420 	stmdacc	lr!, {r5, sl, ip, sp}
  a0:	3220332e 	eorcc	r3, r0, #-1207959552	; 0xb8000000
  a4:	30343130 	eorscc	r3, r4, r0, lsr r1
  a8:	20383232 	eorscs	r3, r8, r2, lsr r2
  ac:	6c657228 	sfmvs	f7, 2, [r5], #-160	; 0xffffff60
  b0:	65736165 	ldrbvs	r6, [r3, #-357]!	; 0x165
  b4:	415b2029 	cmpmi	fp, r9, lsr #32
  b8:	652f4d52 	strvs	r4, [pc, #-3410]!	; fffff36e <Image$$RW_IRAM3$$Base+0xdff7f36e>
  bc:	6465626d 	strbtvs	r6, [r5], #-621	; 0x26d
  c0:	2d646564 	cfstr64cs	mvdx6, [r4, #-400]!	; 0xfffffe70
  c4:	2d385f34 	ldccs	15, cr5, [r8, #-208]!	; 0xffffff30
  c8:	6e617262 	cdpvs	2, 6, cr7, cr1, cr2, {3}
  cc:	72206863 	eorvc	r6, r0, #6488064	; 0x630000
  d0:	73697665 	cmnvc	r9, #105906176	; 0x6500000
  d4:	206e6f69 	rsbcs	r6, lr, r9, ror #30
  d8:	33383032 	teqcc	r8, #50	; 0x32
  dc:	005d3232 	subseq	r3, sp, r2, lsr r2

Disassembly of section .debug_info:

00000000 <.debug_info>:
       0:	0000227b 	andeq	r2, r0, fp, ror r2
       4:	00000004 	andeq	r0, r0, r4
       8:	01040000 	mrseq	r0, (UNDEF: 4)
       c:	00000c5a 	andeq	r0, r0, sl, asr ip
      10:	00045504 	andeq	r5, r4, r4, lsl #10
      14:	00016d00 	andeq	r6, r1, r0, lsl #26
      18:	00004800 	andeq	r4, r0, r0, lsl #16
	...
      24:	06010200 	streq	r0, [r1], -r0, lsl #4
      28:	0000041c 	andeq	r0, r0, ip, lsl r4
      2c:	1a080102 	bne	20043c <__etext+0x1fda7c>
      30:	02000004 	andeq	r0, r0, #4
      34:	0d910502 	cfldr32eq	mvfx0, [r1, #8]
      38:	02020000 	andeq	r0, r2, #0
      3c:	0007f607 	andeq	pc, r7, r7, lsl #12
      40:	0b030300 	bleq	c0c48 <__etext+0xbe288>
      44:	3f040000 	svccc	0x00040000
      48:	0000004c 	andeq	r0, r0, ip, asr #32
      4c:	33050402 	movwcc	r0, #21506	; 0x5402
      50:	0300000c 	movweq	r0, #12
      54:	00000b0d 	andeq	r0, r0, sp, lsl #22
      58:	005e4104 	subseq	r4, lr, r4, lsl #2
      5c:	04020000 	streq	r0, [r2], #-0
      60:	000ba707 	andeq	sl, fp, r7, lsl #14
      64:	05080200 	streq	r0, [r8, #-512]	; 0x200
      68:	00000c2e 	andeq	r0, r0, lr, lsr #24
      6c:	a2070802 	andge	r0, r7, #131072	; 0x20000
      70:	0400000b 	streq	r0, [r0], #-11
      74:	6e690504 	cdpvs	5, 6, cr0, cr9, cr4, {0}
      78:	04020074 	streq	r0, [r2], #-116	; 0x74
      7c:	000bac07 	andeq	sl, fp, r7, lsl #24
      80:	0b050300 	bleq	140c88 <__etext+0x13e2c8>
      84:	2c050000 	stccs	0, cr0, [r5], {-0}
      88:	00000041 	andeq	r0, r0, r1, asr #32
      8c:	000b0f03 	andeq	r0, fp, r3, lsl #30
      90:	532d0500 	teqpl	sp, #0, 10
      94:	02000000 	andeq	r0, r0, #0
      98:	07af0704 	streq	r0, [pc, r4, lsl #14]!
      9c:	8c050000 	stchi	0, cr0, [r5], {-0}
      a0:	06000000 	streq	r0, [r0], -r0
      a4:	0000005e 	andeq	r0, r0, lr, asr r0
      a8:	000000b3 	strheq	r0, [r0], -r3
      ac:	00009707 	andeq	r9, r0, r7, lsl #14
      b0:	06000000 	streq	r0, [r0], -r0
      b4:	0000002c 	andeq	r0, r0, ip, lsr #32
      b8:	000000c3 	andeq	r0, r0, r3, asr #1
      bc:	00009707 	andeq	r9, r0, r7, lsl #14
      c0:	08000200 	stmdaeq	r0, {r9}
      c4:	51200604 	teqpl	r0, r4, lsl #12
      c8:	30000002 	andcc	r0, r0, r2
      cc:	09000009 	stmdbeq	r0, {r0, r3}
      d0:	000000ed 	andeq	r0, r0, sp, ror #1
      d4:	80a78080 	adchi	r8, r7, r0, lsl #1
      d8:	00f20902 	rscseq	r0, r2, r2, lsl #18
      dc:	80810000 	addhi	r0, r1, r0
      e0:	090280a7 	stmdbeq	r2, {r0, r1, r2, r5, r7, pc}
      e4:	000000f7 	strdeq	r0, [r0], -r7
      e8:	80a78082 	adchi	r8, r7, r2, lsl #1
      ec:	00fc0902 	rscseq	r0, ip, r2, lsl #18
      f0:	80830000 	addhi	r0, r3, r0
      f4:	090280a7 	stmdbeq	r2, {r0, r1, r2, r5, r7, pc}
      f8:	00000101 	andeq	r0, r0, r1, lsl #2
      fc:	80a78084 	adchi	r8, r7, r4, lsl #1
     100:	01060902 	tsteq	r6, r2, lsl #18
     104:	80850000 	addhi	r0, r5, r0
     108:	090280a7 	stmdbeq	r2, {r0, r1, r2, r5, r7, pc}
     10c:	0000010b 	andeq	r0, r0, fp, lsl #2
     110:	80a78086 	adchi	r8, r7, r6, lsl #1
     114:	01100902 	tsteq	r0, r2, lsl #18
     118:	80870000 	addhi	r0, r7, r0
     11c:	090280a7 	stmdbeq	r2, {r0, r1, r2, r5, r7, pc}
     120:	00000115 	andeq	r0, r0, r5, lsl r1
     124:	80a78088 	adchi	r8, r7, r8, lsl #1
     128:	011a0902 	tsteq	sl, r2, lsl #18
     12c:	80890000 	addhi	r0, r9, r0
     130:	090280a7 	stmdbeq	r2, {r0, r1, r2, r5, r7, pc}
     134:	000001b6 			; <UNDEFINED> instruction: 0x000001b6
     138:	80a7808a 	adchi	r8, r7, sl, lsl #1
     13c:	01bc0902 			; <UNDEFINED> instruction: 0x01bc0902
     140:	808b0000 	addhi	r0, fp, r0
     144:	090280a7 	stmdbeq	r2, {r0, r1, r2, r5, r7, pc}
     148:	000001c2 	andeq	r0, r0, r2, asr #3
     14c:	80a7808c 	adchi	r8, r7, ip, lsl #1
     150:	01c80902 	biceq	r0, r8, r2, lsl #18
     154:	808d0000 	addhi	r0, sp, r0
     158:	090280a7 	stmdbeq	r2, {r0, r1, r2, r5, r7, pc}
     15c:	000001ce 	andeq	r0, r0, lr, asr #3
     160:	80a7808e 	adchi	r8, r7, lr, lsl #1
     164:	01d40902 	bicseq	r0, r4, r2, lsl #18
     168:	808f0000 	addhi	r0, pc, r0
     16c:	090280a7 	stmdbeq	r2, {r0, r1, r2, r5, r7, pc}
     170:	000001da 	ldrdeq	r0, [r0], -sl
     174:	80a78090 	umlalhi	r8, r7, r0, r0
     178:	01e00902 	mvneq	r0, r2, lsl #18
     17c:	80910000 	addshi	r0, r1, r0
     180:	090280a7 	stmdbeq	r2, {r0, r1, r2, r5, r7, pc}
     184:	000001e6 	andeq	r0, r0, r6, ror #3
     188:	80a78092 	umlalhi	r8, r7, r2, r0
     18c:	01ec0902 	mvneq	r0, r2, lsl #18
     190:	80930000 	addshi	r0, r3, r0
     194:	090280a7 	stmdbeq	r2, {r0, r1, r2, r5, r7, pc}
     198:	00000215 	andeq	r0, r0, r5, lsl r2
     19c:	80a78094 	umlalhi	r8, r7, r4, r0
     1a0:	021b0902 	andseq	r0, fp, #32768	; 0x8000
     1a4:	80950000 	addshi	r0, r5, r0
     1a8:	090280a7 	stmdbeq	r2, {r0, r1, r2, r5, r7, pc}
     1ac:	00000221 	andeq	r0, r0, r1, lsr #4
     1b0:	80a78096 	umlalhi	r8, r7, r6, r0
     1b4:	02270902 	eoreq	r0, r7, #32768	; 0x8000
     1b8:	80970000 	addshi	r0, r7, r0
     1bc:	090280a7 	stmdbeq	r2, {r0, r1, r2, r5, r7, pc}
     1c0:	0000022d 	andeq	r0, r0, sp, lsr #4
     1c4:	80a78098 	umlalhi	r8, r7, r8, r0
     1c8:	02330902 	eorseq	r0, r3, #32768	; 0x8000
     1cc:	80990000 	addshi	r0, r9, r0
     1d0:	090280a7 	stmdbeq	r2, {r0, r1, r2, r5, r7, pc}
     1d4:	00000239 	andeq	r0, r0, r9, lsr r2
     1d8:	80a7809a 	umlalhi	r8, r7, sl, r0
     1dc:	023f0902 	eorseq	r0, pc, #32768	; 0x8000
     1e0:	809b0000 	addshi	r0, fp, r0
     1e4:	090280a7 	stmdbeq	r2, {r0, r1, r2, r5, r7, pc}
     1e8:	00000245 	andeq	r0, r0, r5, asr #4
     1ec:	80a7809c 	umlalhi	r8, r7, ip, r0
     1f0:	024b0902 	subeq	r0, fp, #32768	; 0x8000
     1f4:	809d0000 	addshi	r0, sp, r0
     1f8:	090280a7 	stmdbeq	r2, {r0, r1, r2, r5, r7, pc}
     1fc:	00000271 	andeq	r0, r0, r1, ror r2
     200:	80a7809e 	umlalhi	r8, r7, lr, r0
     204:	02770902 	rsbseq	r0, r7, #32768	; 0x8000
     208:	809f0000 	addshi	r0, pc, r0
     20c:	090280a7 	stmdbeq	r2, {r0, r1, r2, r5, r7, pc}
     210:	000002d8 	ldrdeq	r0, [r0], -r8
     214:	80a780a0 	adchi	r8, r7, r0, lsr #1
     218:	02dd0902 	sbcseq	r0, sp, #32768	; 0x8000
     21c:	80a10000 	adchi	r0, r1, r0
     220:	090280a7 	stmdbeq	r2, {r0, r1, r2, r5, r7, pc}
     224:	000002e2 	andeq	r0, r0, r2, ror #5
     228:	80a780a2 	adchi	r8, r7, r2, lsr #1
     22c:	02e70902 	rsceq	r0, r7, #32768	; 0x8000
     230:	80a30000 	adchi	r0, r3, r0
     234:	090280a7 	stmdbeq	r2, {r0, r1, r2, r5, r7, pc}
     238:	000002ec 	andeq	r0, r0, ip, ror #5
     23c:	80a780a4 	adchi	r8, r7, r4, lsr #1
     240:	02f10902 	rscseq	r0, r1, #32768	; 0x8000
     244:	80a50000 	adchi	r0, r5, r0
     248:	090280a7 	stmdbeq	r2, {r0, r1, r2, r5, r7, pc}
     24c:	000002f6 	strdeq	r0, [r0], -r6
     250:	80a780a6 	adchi	r8, r7, r6, lsr #1
     254:	02fb0902 	rscseq	r0, fp, #32768	; 0x8000
     258:	80a70000 	adchi	r0, r7, r0
     25c:	090280a7 	stmdbeq	r2, {r0, r1, r2, r5, r7, pc}
     260:	00000300 	andeq	r0, r0, r0, lsl #6
     264:	80a780a8 	adchi	r8, r7, r8, lsr #1
     268:	03050902 	movweq	r0, #22786	; 0x5902
     26c:	80a90000 	adchi	r0, r9, r0
     270:	090280a7 	stmdbeq	r2, {r0, r1, r2, r5, r7, pc}
     274:	00000839 	andeq	r0, r0, r9, lsr r8
     278:	80a780aa 	adchi	r8, r7, sl, lsr #1
     27c:	083f0902 	ldmdaeq	pc!, {r1, r8, fp}	; <UNPREDICTABLE>
     280:	80ab0000 	adchi	r0, fp, r0
     284:	090280a7 	stmdbeq	r2, {r0, r1, r2, r5, r7, pc}
     288:	00000845 	andeq	r0, r0, r5, asr #16
     28c:	80a780ac 	adchi	r8, r7, ip, lsr #1
     290:	084b0902 	stmdaeq	fp, {r1, r8, fp}^
     294:	80ad0000 	adchi	r0, sp, r0
     298:	090280a7 	stmdbeq	r2, {r0, r1, r2, r5, r7, pc}
     29c:	00000851 	andeq	r0, r0, r1, asr r8
     2a0:	80a780ae 	adchi	r8, r7, lr, lsr #1
     2a4:	08570902 	ldmdaeq	r7, {r1, r8, fp}^
     2a8:	80af0000 	adchi	r0, pc, r0
     2ac:	090280a7 	stmdbeq	r2, {r0, r1, r2, r5, r7, pc}
     2b0:	0000085d 	andeq	r0, r0, sp, asr r8
     2b4:	80a780b0 	strhthi	r8, [r7], r0
     2b8:	08630902 	stmdaeq	r3!, {r1, r8, fp}^
     2bc:	80b10000 	adcshi	r0, r1, r0
     2c0:	090280a7 	stmdbeq	r2, {r0, r1, r2, r5, r7, pc}
     2c4:	00000869 	andeq	r0, r0, r9, ror #16
     2c8:	80a780b2 	strhthi	r8, [r7], r2
     2cc:	086f0902 	stmdaeq	pc!, {r1, r8, fp}^	; <UNPREDICTABLE>
     2d0:	80b30000 	adcshi	r0, r3, r0
     2d4:	090280a7 	stmdbeq	r2, {r0, r1, r2, r5, r7, pc}
     2d8:	00000897 	muleq	r0, r7, r8
     2dc:	80a780b4 	strhthi	r8, [r7], r4
     2e0:	089d0902 	ldmeq	sp, {r1, r8, fp}
     2e4:	80b50000 	adcshi	r0, r5, r0
     2e8:	090280a7 	stmdbeq	r2, {r0, r1, r2, r5, r7, pc}
     2ec:	000008a3 	andeq	r0, r0, r3, lsr #17
     2f0:	80a780b6 	strhthi	r8, [r7], r6
     2f4:	08a90902 	stmiaeq	r9!, {r1, r8, fp}
     2f8:	80b70000 	adcshi	r0, r7, r0
     2fc:	090280a7 	stmdbeq	r2, {r0, r1, r2, r5, r7, pc}
     300:	000008af 	andeq	r0, r0, pc, lsr #17
     304:	80a780b8 	strhthi	r8, [r7], r8
     308:	08b50902 	ldmeq	r5!, {r1, r8, fp}
     30c:	80b90000 	adcshi	r0, r9, r0
     310:	090280a7 	stmdbeq	r2, {r0, r1, r2, r5, r7, pc}
     314:	000008bb 			; <UNDEFINED> instruction: 0x000008bb
     318:	80a780ba 	strhthi	r8, [r7], sl
     31c:	08c10902 	stmiaeq	r1, {r1, r8, fp}^
     320:	80bb0000 	adcshi	r0, fp, r0
     324:	090280a7 	stmdbeq	r2, {r0, r1, r2, r5, r7, pc}
     328:	000008c7 	andeq	r0, r0, r7, asr #17
     32c:	80a780bc 	strhthi	r8, [r7], ip
     330:	08cd0902 	stmiaeq	sp, {r1, r8, fp}^
     334:	80bd0000 	adcshi	r0, sp, r0
     338:	090280a7 	stmdbeq	r2, {r0, r1, r2, r5, r7, pc}
     33c:	000008fa 	strdeq	r0, [r0], -sl
     340:	80a780be 	strhthi	r8, [r7], lr
     344:	09000902 	stmdbeq	r0, {r1, r8, fp}
     348:	80bf0000 	adcshi	r0, pc, r0
     34c:	090280a7 	stmdbeq	r2, {r0, r1, r2, r5, r7, pc}
     350:	0000048d 	andeq	r0, r0, sp, lsl #9
     354:	80a780c0 	adchi	r8, r7, r0, asr #1
     358:	04280902 	strteq	r0, [r8], #-2306	; 0x902
     35c:	80c10000 	sbchi	r0, r1, r0
     360:	090280a7 	stmdbeq	r2, {r0, r1, r2, r5, r7, pc}
     364:	0000042d 	andeq	r0, r0, sp, lsr #8
     368:	80a780c2 	adchi	r8, r7, r2, asr #1
     36c:	04320902 	ldrteq	r0, [r2], #-2306	; 0x902
     370:	80c30000 	sbchi	r0, r3, r0
     374:	090280a7 	stmdbeq	r2, {r0, r1, r2, r5, r7, pc}
     378:	00000437 	andeq	r0, r0, r7, lsr r4
     37c:	80a780c4 	adchi	r8, r7, r4, asr #1
     380:	043c0902 	ldrteq	r0, [ip], #-2306	; 0x902
     384:	80c50000 	sbchi	r0, r5, r0
     388:	090280a7 	stmdbeq	r2, {r0, r1, r2, r5, r7, pc}
     38c:	00000441 	andeq	r0, r0, r1, asr #8
     390:	80a780c6 	adchi	r8, r7, r6, asr #1
     394:	04460902 	strbeq	r0, [r6], #-2306	; 0x902
     398:	80c70000 	sbchi	r0, r7, r0
     39c:	090280a7 	stmdbeq	r2, {r0, r1, r2, r5, r7, pc}
     3a0:	0000044b 	andeq	r0, r0, fp, asr #8
     3a4:	80a780c8 	adchi	r8, r7, r8, asr #1
     3a8:	04500902 	ldrbeq	r0, [r0], #-2306	; 0x902
     3ac:	80c90000 	sbchi	r0, r9, r0
     3b0:	090280a7 	stmdbeq	r2, {r0, r1, r2, r5, r7, pc}
     3b4:	000000aa 	andeq	r0, r0, sl, lsr #1
     3b8:	80a780ca 	adchi	r8, r7, sl, asr #1
     3bc:	00b00902 	adcseq	r0, r0, r2, lsl #18
     3c0:	80cb0000 	sbchi	r0, fp, r0
     3c4:	090280a7 	stmdbeq	r2, {r0, r1, r2, r5, r7, pc}
     3c8:	000000b6 	strheq	r0, [r0], -r6
     3cc:	80a780cc 	adchi	r8, r7, ip, asr #1
     3d0:	00bc0902 	adcseq	r0, ip, r2, lsl #18
     3d4:	80cd0000 	sbchi	r0, sp, r0
     3d8:	090280a7 	stmdbeq	r2, {r0, r1, r2, r5, r7, pc}
     3dc:	000000c2 	andeq	r0, r0, r2, asr #1
     3e0:	80a780ce 	adchi	r8, r7, lr, asr #1
     3e4:	00c80902 	sbceq	r0, r8, r2, lsl #18
     3e8:	80cf0000 	sbchi	r0, pc, r0
     3ec:	090280a7 	stmdbeq	r2, {r0, r1, r2, r5, r7, pc}
     3f0:	000000ce 	andeq	r0, r0, lr, asr #1
     3f4:	80a780d0 	ldrdhi	r8, [r7], r0	; <UNPREDICTABLE>
     3f8:	00d40902 	sbcseq	r0, r4, r2, lsl #18
     3fc:	80d10000 	sbcshi	r0, r1, r0
     400:	090280a7 	stmdbeq	r2, {r0, r1, r2, r5, r7, pc}
     404:	000000da 	ldrdeq	r0, [r0], -sl
     408:	80a780d2 	ldrdhi	r8, [r7], r2	; <UNPREDICTABLE>
     40c:	00e00902 	rsceq	r0, r0, r2, lsl #18
     410:	80d30000 	sbcshi	r0, r3, r0
     414:	090280a7 	stmdbeq	r2, {r0, r1, r2, r5, r7, pc}
     418:	00000131 	andeq	r0, r0, r1, lsr r1
     41c:	80a780d4 	ldrdhi	r8, [r7], r4	; <UNPREDICTABLE>
     420:	01370902 	teqeq	r7, r2, lsl #18
     424:	80d50000 	sbcshi	r0, r5, r0
     428:	090280a7 	stmdbeq	r2, {r0, r1, r2, r5, r7, pc}
     42c:	0000013d 	andeq	r0, r0, sp, lsr r1
     430:	80a780d6 	ldrdhi	r8, [r7], r6	; <UNPREDICTABLE>
     434:	01430902 	cmpeq	r3, r2, lsl #18
     438:	80d70000 	sbcshi	r0, r7, r0
     43c:	090280a7 	stmdbeq	r2, {r0, r1, r2, r5, r7, pc}
     440:	00000149 	andeq	r0, r0, r9, asr #2
     444:	80a780d8 	ldrdhi	r8, [r7], r8	; <UNPREDICTABLE>
     448:	014f0902 	cmpeq	pc, r2, lsl #18
     44c:	80d90000 	sbcshi	r0, r9, r0
     450:	090280a7 	stmdbeq	r2, {r0, r1, r2, r5, r7, pc}
     454:	00000155 	andeq	r0, r0, r5, asr r1
     458:	80a780da 	ldrdhi	r8, [r7], sl	; <UNPREDICTABLE>
     45c:	015b0902 	cmpeq	fp, r2, lsl #18
     460:	80db0000 	sbcshi	r0, fp, r0
     464:	090280a7 	stmdbeq	r2, {r0, r1, r2, r5, r7, pc}
     468:	00000161 	andeq	r0, r0, r1, ror #2
     46c:	80a780dc 	ldrdhi	r8, [r7], ip	; <UNPREDICTABLE>
     470:	01670902 	cmneq	r7, r2, lsl #18
     474:	80dd0000 	sbcshi	r0, sp, r0
     478:	090280a7 	stmdbeq	r2, {r0, r1, r2, r5, r7, pc}
     47c:	000001a4 	andeq	r0, r0, r4, lsr #3
     480:	80a780de 	ldrdhi	r8, [r7], lr	; <UNPREDICTABLE>
     484:	01aa0902 			; <UNDEFINED> instruction: 0x01aa0902
     488:	80df0000 	sbcshi	r0, pc, r0
     48c:	090280a7 	stmdbeq	r2, {r0, r1, r2, r5, r7, pc}
     490:	00000550 	andeq	r0, r0, r0, asr r5
     494:	80a780e0 	adchi	r8, r7, r0, ror #1
     498:	05550902 	ldrbeq	r0, [r5, #-2306]	; 0x902
     49c:	80e10000 	rschi	r0, r1, r0
     4a0:	090280a7 	stmdbeq	r2, {r0, r1, r2, r5, r7, pc}
     4a4:	0000055a 	andeq	r0, r0, sl, asr r5
     4a8:	80a780e2 	adchi	r8, r7, r2, ror #1
     4ac:	055f0902 	ldrbeq	r0, [pc, #-2306]	; fffffbb2 <Image$$RW_IRAM3$$Base+0xdff7fbb2>
     4b0:	80e30000 	rschi	r0, r3, r0
     4b4:	090280a7 	stmdbeq	r2, {r0, r1, r2, r5, r7, pc}
     4b8:	00000564 	andeq	r0, r0, r4, ror #10
     4bc:	80a780e4 	adchi	r8, r7, r4, ror #1
     4c0:	05690902 	strbeq	r0, [r9, #-2306]!	; 0x902
     4c4:	80e50000 	rschi	r0, r5, r0
     4c8:	090280a7 	stmdbeq	r2, {r0, r1, r2, r5, r7, pc}
     4cc:	0000056e 	andeq	r0, r0, lr, ror #10
     4d0:	80a780e6 	adchi	r8, r7, r6, ror #1
     4d4:	05730902 	ldrbeq	r0, [r3, #-2306]!	; 0x902
     4d8:	80e70000 	rschi	r0, r7, r0
     4dc:	090280a7 	stmdbeq	r2, {r0, r1, r2, r5, r7, pc}
     4e0:	00000578 	andeq	r0, r0, r8, ror r5
     4e4:	80a780e8 	adchi	r8, r7, r8, ror #1
     4e8:	057d0902 	ldrbeq	r0, [sp, #-2306]!	; 0x902
     4ec:	80e90000 	rschi	r0, r9, r0
     4f0:	090280a7 	stmdbeq	r2, {r0, r1, r2, r5, r7, pc}
     4f4:	00000773 	andeq	r0, r0, r3, ror r7
     4f8:	80a780ea 	adchi	r8, r7, sl, ror #1
     4fc:	07790902 	ldrbeq	r0, [r9, -r2, lsl #18]!
     500:	80eb0000 	rschi	r0, fp, r0
     504:	090280a7 	stmdbeq	r2, {r0, r1, r2, r5, r7, pc}
     508:	0000077f 	andeq	r0, r0, pc, ror r7
     50c:	80a780ec 	adchi	r8, r7, ip, ror #1
     510:	07850902 	streq	r0, [r5, r2, lsl #18]
     514:	80ed0000 	rschi	r0, sp, r0
     518:	090280a7 	stmdbeq	r2, {r0, r1, r2, r5, r7, pc}
     51c:	0000078b 	andeq	r0, r0, fp, lsl #15
     520:	80a780ee 	adchi	r8, r7, lr, ror #1
     524:	07910902 	ldreq	r0, [r1, r2, lsl #18]
     528:	80ef0000 	rschi	r0, pc, r0
     52c:	090280a7 	stmdbeq	r2, {r0, r1, r2, r5, r7, pc}
     530:	00000797 	muleq	r0, r7, r7
     534:	80a780f0 	strdhi	r8, [r7], r0	; <UNPREDICTABLE>
     538:	079d0902 	ldreq	r0, [sp, r2, lsl #18]
     53c:	80f10000 	rscshi	r0, r1, r0
     540:	090280a7 	stmdbeq	r2, {r0, r1, r2, r5, r7, pc}
     544:	000007a3 	andeq	r0, r0, r3, lsr #15
     548:	80a780f2 	strdhi	r8, [r7], r2	; <UNPREDICTABLE>
     54c:	07a90902 	streq	r0, [r9, r2, lsl #18]!
     550:	80f30000 	rscshi	r0, r3, r0
     554:	090280a7 	stmdbeq	r2, {r0, r1, r2, r5, r7, pc}
     558:	000007d2 	ldrdeq	r0, [r0], -r2
     55c:	80a780f4 	strdhi	r8, [r7], r4	; <UNPREDICTABLE>
     560:	07d80902 	ldrbeq	r0, [r8, r2, lsl #18]
     564:	80f50000 	rscshi	r0, r5, r0
     568:	090280a7 	stmdbeq	r2, {r0, r1, r2, r5, r7, pc}
     56c:	000007de 	ldrdeq	r0, [r0], -lr
     570:	80a780f6 	strdhi	r8, [r7], r6	; <UNPREDICTABLE>
     574:	07e40902 	strbeq	r0, [r4, r2, lsl #18]!
     578:	80f70000 	rscshi	r0, r7, r0
     57c:	090280a7 	stmdbeq	r2, {r0, r1, r2, r5, r7, pc}
     580:	000007ea 	andeq	r0, r0, sl, ror #15
     584:	80a780f8 	strdhi	r8, [r7], r8	; <UNPREDICTABLE>
     588:	07f00902 	ldrbeq	r0, [r0, r2, lsl #18]!
     58c:	80f90000 	rscshi	r0, r9, r0
     590:	090280a7 	stmdbeq	r2, {r0, r1, r2, r5, r7, pc}
     594:	00000625 	andeq	r0, r0, r5, lsr #12
     598:	80a780fa 	strdhi	r8, [r7], sl	; <UNPREDICTABLE>
     59c:	08090902 	stmdaeq	r9, {r1, r8, fp}
     5a0:	80fb0000 	rscshi	r0, fp, r0
     5a4:	090280a7 	stmdbeq	r2, {r0, r1, r2, r5, r7, pc}
     5a8:	0000080f 	andeq	r0, r0, pc, lsl #16
     5ac:	80a780fc 	strdhi	r8, [r7], ip	; <UNPREDICTABLE>
     5b0:	08150902 	ldmdaeq	r5, {r1, r8, fp}
     5b4:	80fd0000 	rscshi	r0, sp, r0
     5b8:	090280a7 	stmdbeq	r2, {r0, r1, r2, r5, r7, pc}
     5bc:	0000082d 	andeq	r0, r0, sp, lsr #16
     5c0:	80a780fe 	strdhi	r8, [r7], lr	; <UNPREDICTABLE>
     5c4:	08330902 	ldmdaeq	r3!, {r1, r8, fp}
     5c8:	80ff0000 	rscshi	r0, pc, r0
     5cc:	090280a7 	stmdbeq	r2, {r0, r1, r2, r5, r7, pc}
     5d0:	00000643 	andeq	r0, r0, r3, asr #12
     5d4:	80a78180 	adchi	r8, r7, r0, lsl #3
     5d8:	06480902 	strbeq	r0, [r8], -r2, lsl #18
     5dc:	81810000 	orrhi	r0, r1, r0
     5e0:	090280a7 	stmdbeq	r2, {r0, r1, r2, r5, r7, pc}
     5e4:	0000064d 	andeq	r0, r0, sp, asr #12
     5e8:	80a78182 	adchi	r8, r7, r2, lsl #3
     5ec:	06520902 	ldrbeq	r0, [r2], -r2, lsl #18
     5f0:	81830000 	orrhi	r0, r3, r0
     5f4:	090280a7 	stmdbeq	r2, {r0, r1, r2, r5, r7, pc}
     5f8:	00000657 	andeq	r0, r0, r7, asr r6
     5fc:	80a78184 	adchi	r8, r7, r4, lsl #3
     600:	065c0902 	ldrbeq	r0, [ip], -r2, lsl #18
     604:	81850000 	orrhi	r0, r5, r0
     608:	090280a7 	stmdbeq	r2, {r0, r1, r2, r5, r7, pc}
     60c:	00000661 	andeq	r0, r0, r1, ror #12
     610:	80a78186 	adchi	r8, r7, r6, lsl #3
     614:	06660902 	strbteq	r0, [r6], -r2, lsl #18
     618:	81870000 	orrhi	r0, r7, r0
     61c:	090280a7 	stmdbeq	r2, {r0, r1, r2, r5, r7, pc}
     620:	0000066b 	andeq	r0, r0, fp, ror #12
     624:	80a78188 	adchi	r8, r7, r8, lsl #3
     628:	06700902 	ldrbteq	r0, [r0], -r2, lsl #18
     62c:	81890000 	orrhi	r0, r9, r0
     630:	090280a7 	stmdbeq	r2, {r0, r1, r2, r5, r7, pc}
     634:	00000006 	andeq	r0, r0, r6
     638:	80a7818a 	adchi	r8, r7, sl, lsl #3
     63c:	000c0902 	andeq	r0, ip, r2, lsl #18
     640:	818b0000 	orrhi	r0, fp, r0
     644:	090280a7 	stmdbeq	r2, {r0, r1, r2, r5, r7, pc}
     648:	00000012 	andeq	r0, r0, r2, lsl r0
     64c:	80a7818c 	adchi	r8, r7, ip, lsl #3
     650:	00180902 	andseq	r0, r8, r2, lsl #18
     654:	818d0000 	orrhi	r0, sp, r0
     658:	090280a7 	stmdbeq	r2, {r0, r1, r2, r5, r7, pc}
     65c:	0000001e 	andeq	r0, r0, lr, lsl r0
     660:	80a7818e 	adchi	r8, r7, lr, lsl #3
     664:	00240902 	eoreq	r0, r4, r2, lsl #18
     668:	818f0000 	orrhi	r0, pc, r0
     66c:	090280a7 	stmdbeq	r2, {r0, r1, r2, r5, r7, pc}
     670:	0000002a 	andeq	r0, r0, sl, lsr #32
     674:	80a78190 	umlalhi	r8, r7, r0, r1
     678:	00300902 	eorseq	r0, r0, r2, lsl #18
     67c:	81910000 	orrshi	r0, r1, r0
     680:	090280a7 	stmdbeq	r2, {r0, r1, r2, r5, r7, pc}
     684:	00000036 	andeq	r0, r0, r6, lsr r0
     688:	80a78192 	umlalhi	r8, r7, r2, r1
     68c:	003c0902 	eorseq	r0, ip, r2, lsl #18
     690:	81930000 	orrshi	r0, r3, r0
     694:	090280a7 	stmdbeq	r2, {r0, r1, r2, r5, r7, pc}
     698:	00000042 	andeq	r0, r0, r2, asr #32
     69c:	80a78194 	umlalhi	r8, r7, r4, r1
     6a0:	00480902 	subeq	r0, r8, r2, lsl #18
     6a4:	81950000 	orrshi	r0, r5, r0
     6a8:	090280a7 	stmdbeq	r2, {r0, r1, r2, r5, r7, pc}
     6ac:	0000004e 	andeq	r0, r0, lr, asr #32
     6b0:	80a78196 	umlalhi	r8, r7, r6, r1
     6b4:	00540902 	subseq	r0, r4, r2, lsl #18
     6b8:	81970000 	orrshi	r0, r7, r0
     6bc:	090280a7 	stmdbeq	r2, {r0, r1, r2, r5, r7, pc}
     6c0:	0000005a 	andeq	r0, r0, sl, asr r0
     6c4:	80a78198 	umlalhi	r8, r7, r8, r1
     6c8:	00600902 	rsbeq	r0, r0, r2, lsl #18
     6cc:	81990000 	orrshi	r0, r9, r0
     6d0:	090280a7 	stmdbeq	r2, {r0, r1, r2, r5, r7, pc}
     6d4:	00000066 	andeq	r0, r0, r6, rrx
     6d8:	80a7819a 	umlalhi	r8, r7, sl, r1
     6dc:	006c0902 	rsbeq	r0, ip, r2, lsl #18
     6e0:	819b0000 	orrshi	r0, fp, r0
     6e4:	090280a7 	stmdbeq	r2, {r0, r1, r2, r5, r7, pc}
     6e8:	00000072 	andeq	r0, r0, r2, ror r0
     6ec:	80a7819c 	umlalhi	r8, r7, ip, r1
     6f0:	00780902 	rsbseq	r0, r8, r2, lsl #18
     6f4:	819d0000 	orrshi	r0, sp, r0
     6f8:	090280a7 	stmdbeq	r2, {r0, r1, r2, r5, r7, pc}
     6fc:	00000096 	muleq	r0, r6, r0
     700:	80a7819e 	umlalhi	r8, r7, lr, r1
     704:	009c0902 	addseq	r0, ip, r2, lsl #18
     708:	819f0000 	orrshi	r0, pc, r0
     70c:	0a0280a7 	beq	a09b0 <__etext+0x9dff0>
     710:	89003570 	stmdbhi	r0, {r4, r5, r6, r8, sl, ip, sp}
     714:	0280a780 	addeq	sl, r0, #128, 14	; 0x2000000
     718:	0036700a 	eorseq	r7, r6, sl
     71c:	80a78088 	adchi	r8, r7, r8, lsl #1
     720:	37700a02 	ldrbcc	r0, [r0, -r2, lsl #20]!
     724:	a7808700 	strge	r8, [r0, r0, lsl #14]
     728:	700a0280 	andvc	r0, sl, r0, lsl #5
     72c:	80860038 	addhi	r0, r6, r8, lsr r0
     730:	0a0280a7 	beq	a09d4 <__etext+0x9e014>
     734:	80003970 	andhi	r3, r0, r0, ror r9
     738:	0280a780 	addeq	sl, r0, #128, 14	; 0x2000000
     73c:	3031700a 	eorscc	r7, r1, sl
     740:	a7808100 	strge	r8, [r0, r0, lsl #2]
     744:	700a0280 	andvc	r0, sl, r0, lsl #5
     748:	92003131 	andls	r3, r0, #1073741836	; 0x4000000c
     74c:	0280a780 	addeq	sl, r0, #128, 14	; 0x2000000
     750:	3231700a 	eorscc	r7, r1, #10
     754:	a7809100 	strge	r9, [r0, r0, lsl #2]
     758:	700a0280 	andvc	r0, sl, r0, lsl #5
     75c:	8f003331 	svchi	0x00003331
     760:	0280a780 	addeq	sl, r0, #128, 14	; 0x2000000
     764:	3431700a 	ldrtcc	r7, [r1], #-10
     768:	a7809000 	strge	r9, [r0, r0]
     76c:	700a0280 	andvc	r0, sl, r0, lsl #5
     770:	97003531 	smladxls	r0, r1, r5, r3
     774:	0280a780 	addeq	sl, r0, #128, 14	; 0x2000000
     778:	3631700a 	ldrtcc	r7, [r1], -sl
     77c:	a7809800 	strge	r9, [r0, r0, lsl #16]
     780:	700a0280 	andvc	r0, sl, r0, lsl #5
     784:	99003731 	stmdbls	r0, {r0, r4, r5, r8, r9, sl, ip, sp}
     788:	0280a780 	addeq	sl, r0, #128, 14	; 0x2000000
     78c:	3831700a 	ldmdacc	r1!, {r1, r3, ip, sp, lr}
     790:	a7809a00 	strge	r9, [r0, r0, lsl #20]
     794:	700a0280 	andvc	r0, sl, r0, lsl #5
     798:	be003931 	mcrlt	9, 0, r3, cr0, cr1, {1}
     79c:	0280a780 	addeq	sl, r0, #128, 14	; 0x2000000
     7a0:	3032700a 	eorscc	r7, r2, sl
     7a4:	a780bf00 	strge	fp, [r0, r0, lsl #30]
     7a8:	700a0280 	andvc	r0, sl, r0, lsl #5
     7ac:	c5003132 	strgt	r3, [r0, #-306]	; 0x132
     7b0:	0280a780 	addeq	sl, r0, #128, 14	; 0x2000000
     7b4:	3232700a 	eorscc	r7, r2, #10
     7b8:	a780c400 	strge	ip, [r0, r0, lsl #8]
     7bc:	700a0280 	andvc	r0, sl, r0, lsl #5
     7c0:	c3003332 	movwgt	r3, #818	; 0x332
     7c4:	0280a780 	addeq	sl, r0, #128, 14	; 0x2000000
     7c8:	3432700a 	ldrtcc	r7, [r2], #-10
     7cc:	a780c200 	strge	ip, [r0, r0, lsl #4]
     7d0:	700a0280 	andvc	r0, sl, r0, lsl #5
     7d4:	c1003532 	tstgt	r0, r2, lsr r5
     7d8:	0280a780 	addeq	sl, r0, #128, 14	; 0x2000000
     7dc:	3632700a 	ldrtcc	r7, [r2], -sl
     7e0:	a780c000 	strge	ip, [r0, r0]
     7e4:	700a0280 	andvc	r0, sl, r0, lsl #5
     7e8:	8b003732 	blhi	e4b8 <__etext+0xbaf8>
     7ec:	0280a780 	addeq	sl, r0, #128, 14	; 0x2000000
     7f0:	3832700a 	ldmdacc	r2!, {r1, r3, ip, sp, lr}
     7f4:	a7808a00 	strge	r8, [r0, r0, lsl #20]
     7f8:	700a0280 	andvc	r0, sl, r0, lsl #5
     7fc:	85003932 	strhi	r3, [r0, #-2354]	; 0x932
     800:	0280a780 	addeq	sl, r0, #128, 14	; 0x2000000
     804:	3033700a 	eorscc	r7, r3, sl
     808:	a7808400 	strge	r8, [r0, r0, lsl #8]
     80c:	48090280 	stmdami	r9, {r7, r9}
     810:	b200000a 	andlt	r0, r0, #10
     814:	0280a780 	addeq	sl, r0, #128, 14	; 0x2000000
     818:	000a4d09 	andeq	r4, sl, r9, lsl #26
     81c:	a780b400 	strge	fp, [r0, r0, lsl #8]
     820:	52090280 	andpl	r0, r9, #128, 4
     824:	b500000a 	strlt	r0, [r0, #-10]
     828:	0280a780 	addeq	sl, r0, #128, 14	; 0x2000000
     82c:	000a5709 	andeq	r5, sl, r9, lsl #14
     830:	a780b700 	strge	fp, [r0, r0, lsl #14]
     834:	f4090280 	vst1.32	{d0-d3}, [r9], r0
     838:	82000004 	andhi	r0, r0, #4
     83c:	0280a780 	addeq	sl, r0, #128, 14	; 0x2000000
     840:	00048709 	andeq	r8, r4, r9, lsl #14
     844:	a7808300 	strge	r8, [r0, r0, lsl #6]
     848:	440a0280 	strmi	r0, [sl], #-640	; 0x280
     84c:	819d0030 	orrshi	r0, sp, r0, lsr r0
     850:	0a0280a7 	beq	a0af4 <__etext+0x9e134>
     854:	9c003144 	stflss	f3, [r0], {68}	; 0x44
     858:	0280a781 	addeq	sl, r0, #33816576	; 0x2040000
     85c:	0032440a 	eorseq	r4, r2, sl, lsl #8
     860:	80a78084 	adchi	r8, r7, r4, lsl #1
     864:	33440a02 	movtcc	r0, #18946	; 0x4a02
     868:	a7808500 	strge	r8, [r0, r0, lsl #10]
     86c:	440a0280 	strmi	r0, [sl], #-640	; 0x280
     870:	80c20034 	sbchi	r0, r2, r4, lsr r0
     874:	0a0280a7 	beq	a0b18 <__etext+0x9e158>
     878:	c3003544 	movwgt	r3, #1348	; 0x544
     87c:	0280a780 	addeq	sl, r0, #128, 14	; 0x2000000
     880:	0036440a 	eorseq	r4, r6, sl, lsl #8
     884:	80a780c4 	adchi	r8, r7, r4, asr #1
     888:	37440a02 	strbcc	r0, [r4, -r2, lsl #20]
     88c:	a780c500 	strge	ip, [r0, r0, lsl #10]
     890:	440a0280 	strmi	r0, [sl], #-640	; 0x280
     894:	80800038 	addhi	r0, r0, r8, lsr r0
     898:	0a0280a7 	beq	a0b3c <__etext+0x9e17c>
     89c:	81003944 	tsthi	r0, r4, asr #18
     8a0:	0280a780 	addeq	sl, r0, #128, 14	; 0x2000000
     8a4:	3031440a 	eorscc	r4, r1, sl, lsl #8
     8a8:	a7808600 	strge	r8, [r0, r0, lsl #12]
     8ac:	440a0280 	strmi	r0, [sl], #-640	; 0x280
     8b0:	89003131 	stmdbhi	r0, {r0, r4, r5, r8, ip, sp}
     8b4:	0280a780 	addeq	sl, r0, #128, 14	; 0x2000000
     8b8:	3231440a 	eorscc	r4, r1, #167772160	; 0xa000000
     8bc:	a7808800 	strge	r8, [r0, r0, lsl #16]
     8c0:	440a0280 	strmi	r0, [sl], #-640	; 0x280
     8c4:	87003331 	smladxhi	r0, r1, r3, r3
     8c8:	0280a780 	addeq	sl, r0, #128, 14	; 0x2000000
     8cc:	3431440a 	ldrtcc	r4, [r1], #-1034	; 0x40a
     8d0:	a7809b00 	strge	r9, [r0, r0, lsl #22]
     8d4:	440a0280 	strmi	r0, [sl], #-640	; 0x280
     8d8:	9c003531 	cfstr32ls	mvfx3, [r0], {49}	; 0x31
     8dc:	0280a780 	addeq	sl, r0, #128, 14	; 0x2000000
     8e0:	0030410a 	eorseq	r4, r0, sl, lsl #2
     8e4:	80a78097 	umlalhi	r8, r7, r7, r0
     8e8:	31410a02 	cmpcc	r1, r2, lsl #20
     8ec:	a7809800 	strge	r9, [r0, r0, lsl #16]
     8f0:	410a0280 	smlabbmi	sl, r0, r2, r0
     8f4:	80990032 	addshi	r0, r9, r2, lsr r0
     8f8:	0a0280a7 	beq	a0b9c <__etext+0x9e1dc>
     8fc:	9a003341 	bls	d608 <__etext+0xac48>
     900:	0280a780 	addeq	sl, r0, #128, 14	; 0x2000000
     904:	0034410a 	eorseq	r4, r4, sl, lsl #2
     908:	80a780be 	strhthi	r8, [r7], lr
     90c:	35410a02 	strbcc	r0, [r1, #-2562]	; 0xa02
     910:	a780bf00 	strge	fp, [r0, r0, lsl #30]
     914:	ed090280 	sfm	f0, 4, [r9, #-512]	; 0xfffffe00
     918:	9c000008 	stcls	0, cr0, [r0], {8}
     91c:	0280a780 	addeq	sl, r0, #128, 14	; 0x2000000
     920:	00091909 	andeq	r1, r9, r9, lsl #18
     924:	a7809b00 	strge	r9, [r0, r0, lsl #22]
     928:	4e0a0280 	cdpmi	2, 0, cr0, cr10, cr0, {4}
     92c:	007f0043 	rsbseq	r0, pc, r3, asr #32
     930:	00025203 	andeq	r5, r2, r3, lsl #4
     934:	c3720600 	cmngt	r2, #0, 12
     938:	0b000000 	bleq	940 <serial_baud+0x138>
     93c:	e6190218 			; <UNDEFINED> instruction: 0xe6190218
     940:	9000000b 	andls	r0, r0, fp
     944:	0c000009 	stceq	0, cr0, [r0], {9}
     948:	006e6970 	rsbeq	r6, lr, r0, ror r9
     94c:	09301a02 	ldmdbeq	r0!, {r1, r9, fp, ip}
     950:	0d000000 	stceq	0, cr0, [r0, #-0]
     954:	00000295 	muleq	r0, r5, r2
     958:	008c1b02 	addeq	r1, ip, r2, lsl #22
     95c:	0d040000 	stceq	0, cr0, [r4, #-0]
     960:	0000081b 	andeq	r0, r0, fp, lsl r8
     964:	09901d02 	ldmibeq	r0, {r1, r8, sl, fp, ip}
     968:	0d080000 	stceq	0, cr0, [r8, #-0]
     96c:	00000b55 	andeq	r0, r0, r5, asr fp
     970:	09901e02 	ldmibeq	r0, {r1, r9, sl, fp, ip}
     974:	0d0c0000 	stceq	0, cr0, [ip, #-0]
     978:	000005e8 	andeq	r0, r0, r8, ror #11
     97c:	09901f02 	ldmibeq	r0, {r1, r8, r9, sl, fp, ip}
     980:	0d100000 	ldceq	0, cr0, [r0, #-0]
     984:	000007c4 	andeq	r0, r0, r4, asr #15
     988:	09902002 	ldmibeq	r0, {r1, sp}
     98c:	00140000 	andseq	r0, r4, r0
     990:	009e040e 	addseq	r0, lr, lr, lsl #8
     994:	e7030000 	str	r0, [r3, -r0]
     998:	0200000b 	andeq	r0, r0, #11
     99c:	00093b21 	andeq	r3, r9, r1, lsr #22
     9a0:	05890300 	streq	r0, [r9, #768]	; 0x300
     9a4:	d4070000 	strle	r0, [r7], #-0
     9a8:	0000007a 	andeq	r0, r0, sl, ror r0
     9ac:	00093903 	andeq	r3, r9, r3, lsl #18
     9b0:	73070800 	movwvc	r0, #30720	; 0x7800
     9b4:	03000000 	movweq	r0, #0
     9b8:	00000582 	andeq	r0, r0, r2, lsl #11
     9bc:	004c1009 	subeq	r1, ip, r9
     9c0:	d3030000 	movwle	r0, #12288	; 0x3000
     9c4:	0900000a 	stmdbeq	r0, {r1, r3}
     9c8:	00004c27 	andeq	r4, r0, r7, lsr #24
     9cc:	06020f00 	streq	r0, [r2], -r0, lsl #30
     9d0:	61070000 	mrsvs	r0, (UNDEF: 7)
     9d4:	00007a01 	andeq	r7, r0, r1, lsl #20
     9d8:	09080b00 	stmdbeq	r8, {r8, r9, fp}
     9dc:	000a2248 	andeq	r2, sl, r8, asr #4
     9e0:	000a1d00 	andeq	r1, sl, r0, lsl #26
     9e4:	09041000 	stmdbeq	r4, {ip}
     9e8:	000a044b 	andeq	r0, sl, fp, asr #8
     9ec:	09131100 	ldmdbeq	r3, {r8, ip}
     9f0:	4c090000 	stcmi	0, cr0, [r9], {-0}
     9f4:	000009cd 	andeq	r0, r0, sp, asr #19
     9f8:	0005d211 	andeq	sp, r5, r1, lsl r2
     9fc:	1d4d0900 	stclne	9, cr0, [sp, #-0]
     a00:	0000000a 	andeq	r0, r0, sl
     a04:	00059f0d 	andeq	r9, r5, sp, lsl #30
     a08:	73490900 	movtvc	r0, #39168	; 0x9900
     a0c:	00000000 	andeq	r0, r0, r0
     a10:	000b250d 	andeq	r2, fp, sp, lsl #10
     a14:	e54e0900 	strb	r0, [lr, #-2304]	; 0x900
     a18:	04000009 	streq	r0, [r0], #-9
     a1c:	002c0600 	eoreq	r0, ip, r0, lsl #12
     a20:	0a2d0000 	beq	b40a28 <__etext+0xb3e068>
     a24:	97070000 	strls	r0, [r7, -r0]
     a28:	03000000 	movweq	r0, #0
     a2c:	0a240300 	beq	901634 <__etext+0x8fec74>
     a30:	4f090000 	svcmi	0x00090000
     a34:	000009d9 	ldrdeq	r0, [r0], -r9
     a38:	000c1603 	andeq	r1, ip, r3, lsl #12
     a3c:	ac530900 	mrrcge	9, 0, r0, r3, cr0
     a40:	12000009 	andne	r0, r0, #9
     a44:	07250304 	streq	r0, [r5, -r4, lsl #6]!
     a48:	160a0000 	strne	r0, [sl], -r0
     a4c:	0000005e 	andeq	r0, r0, lr, asr r0
     a50:	000a3713 	andeq	r3, sl, r3, lsl r7
     a54:	2d0a1800 	stccs	8, cr1, [sl, #-0]
     a58:	00000aa3 	andeq	r0, r0, r3, lsr #21
     a5c:	00097e0d 	andeq	r7, r9, sp, lsl #28
     a60:	a32f0a00 	teqge	pc, #0, 20
     a64:	0000000a 	andeq	r0, r0, sl
     a68:	006b5f0c 	rsbeq	r5, fp, ip, lsl #30
     a6c:	0073300a 	rsbseq	r3, r3, sl
     a70:	0d040000 	stceq	0, cr0, [r4, #-0]
     a74:	0000098b 	andeq	r0, r0, fp, lsl #19
     a78:	0073300a 	rsbseq	r3, r3, sl
     a7c:	0d080000 	stceq	0, cr0, [r8, #-0]
     a80:	00000d6a 	andeq	r0, r0, sl, ror #26
     a84:	0073300a 	rsbseq	r3, r3, sl
     a88:	0d0c0000 	stceq	0, cr0, [ip, #-0]
     a8c:	00000476 	andeq	r0, r0, r6, ror r4
     a90:	0073300a 	rsbseq	r3, r3, sl
     a94:	0c100000 	ldceq	0, cr0, [r0], {-0}
     a98:	0a00785f 	beq	1ec1c <__etext+0x1c25c>
     a9c:	0000a331 	andeq	sl, r0, r1, lsr r3
     aa0:	0e001400 	cfcpyseq	mvf1, mvf0
     aa4:	000a5004 	andeq	r5, sl, r4
     aa8:	036c1300 	cmneq	ip, #0, 6
     aac:	0a240000 	beq	900ab4 <__etext+0x8fe0f4>
     ab0:	000b2235 	andeq	r2, fp, r5, lsr r2
     ab4:	06c80d00 	strbeq	r0, [r8], r0, lsl #26
     ab8:	370a0000 	strcc	r0, [sl, -r0]
     abc:	00000073 	andeq	r0, r0, r3, ror r0
     ac0:	0d700d00 	ldcleq	13, cr0, [r0, #-0]
     ac4:	380a0000 	stmdacc	sl, {}	; <UNPREDICTABLE>
     ac8:	00000073 	andeq	r0, r0, r3, ror r0
     acc:	05f00d04 	ldrbeq	r0, [r0, #3332]!	; 0xd04
     ad0:	390a0000 	stmdbcc	sl, {}	; <UNPREDICTABLE>
     ad4:	00000073 	andeq	r0, r0, r3, ror r0
     ad8:	061b0d08 	ldreq	r0, [fp], -r8, lsl #26
     adc:	3a0a0000 	bcc	280ae4 <__etext+0x27e124>
     ae0:	00000073 	andeq	r0, r0, r3, ror r0
     ae4:	011f0d0c 	tsteq	pc, ip, lsl #26
     ae8:	3b0a0000 	blcc	280af0 <__etext+0x27e130>
     aec:	00000073 	andeq	r0, r0, r3, ror r0
     af0:	04e30d10 	strbteq	r0, [r3], #3344	; 0xd10
     af4:	3c0a0000 	stccc	0, cr0, [sl], {-0}
     af8:	00000073 	andeq	r0, r0, r3, ror r0
     afc:	03fc0d14 	mvnseq	r0, #20, 26	; 0x500
     b00:	3d0a0000 	stccc	0, cr0, [sl, #-0]
     b04:	00000073 	andeq	r0, r0, r3, ror r0
     b08:	03710d18 	cmneq	r1, #24, 26	; 0x600
     b0c:	3e0a0000 	cdpcc	0, 0, cr0, cr10, cr0, {0}
     b10:	00000073 	andeq	r0, r0, r3, ror r0
     b14:	04060d1c 	streq	r0, [r6], #-3356	; 0xd1c
     b18:	3f0a0000 	svccc	0x000a0000
     b1c:	00000073 	andeq	r0, r0, r3, ror r0
     b20:	e4140020 	ldr	r0, [r4], #-32
     b24:	08000006 	stmdaeq	r0, {r1, r2}
     b28:	62480a01 	subvs	r0, r8, #4096	; 0x1000
     b2c:	0d00000b 	stceq	0, cr0, [r0, #-44]	; 0xffffffd4
     b30:	0000062b 	andeq	r0, r0, fp, lsr #12
     b34:	0b62490a 	bleq	1892f64 <__etext+0x18905a4>
     b38:	0d000000 	stceq	0, cr0, [r0, #-0]
     b3c:	000003e1 	andeq	r0, r0, r1, ror #7
     b40:	0b624a0a 	bleq	1893370 <__etext+0x18909b0>
     b44:	15800000 	strne	r0, [r0]
     b48:	00000128 	andeq	r0, r0, r8, lsr #2
     b4c:	0a454c0a 	beq	1153b7c <__etext+0x11511bc>
     b50:	01000000 	mrseq	r0, (UNDEF: 0)
     b54:	000b2d15 	andeq	r2, fp, r5, lsl sp
     b58:	454f0a00 	strbmi	r0, [pc, #-2560]	; 160 <_mainCRTStartup+0x38>
     b5c:	0400000a 	streq	r0, [r0], #-10
     b60:	43060001 	movwmi	r0, #24577	; 0x6001
     b64:	7200000a 	andvc	r0, r0, #10
     b68:	0700000b 	streq	r0, [r0, -fp]
     b6c:	00000097 	muleq	r0, r7, r0
     b70:	a214001f 	andsge	r0, r4, #31
     b74:	90000000 	andls	r0, r0, r0
     b78:	b05b0a01 	subslt	r0, fp, r1, lsl #20
     b7c:	0d00000b 	stceq	0, cr0, [r0, #-44]	; 0xffffffd4
     b80:	0000097e 	andeq	r0, r0, lr, ror r9
     b84:	0bb05c0a 	bleq	fec17bb4 <Image$$RW_IRAM3$$Base+0xdeb97bb4>
     b88:	0d000000 	stceq	0, cr0, [r0, #-0]
     b8c:	000006bb 			; <UNDEFINED> instruction: 0x000006bb
     b90:	00735d0a 	rsbseq	r5, r3, sl, lsl #26
     b94:	0d040000 	stceq	0, cr0, [r4, #-0]
     b98:	00000aee 	andeq	r0, r0, lr, ror #21
     b9c:	0bb65f0a 	bleq	fed987cc <Image$$RW_IRAM3$$Base+0xded187cc>
     ba0:	0d080000 	stceq	0, cr0, [r8, #-0]
     ba4:	000006e4 	andeq	r0, r0, r4, ror #13
     ba8:	0b22600a 	bleq	898bd8 <__etext+0x896218>
     bac:	00880000 	addeq	r0, r8, r0
     bb0:	0b72040e 	bleq	1c81bf0 <__etext+0x1c7f230>
     bb4:	c6060000 	strgt	r0, [r6], -r0
     bb8:	c600000b 	strgt	r0, [r0], -fp
     bbc:	0700000b 	streq	r0, [r0, -fp]
     bc0:	00000097 	muleq	r0, r7, r0
     bc4:	040e001f 	streq	r0, [lr], #-31
     bc8:	00000bcc 	andeq	r0, r0, ip, asr #23
     bcc:	08d31316 	ldmeq	r3, {r1, r2, r4, r8, r9, ip}^
     bd0:	0a080000 	beq	200bd8 <__etext+0x1fe218>
     bd4:	000bf273 	andeq	pc, fp, r3, ror r2	; <UNPREDICTABLE>
     bd8:	032f0d00 	teqeq	pc, #0, 26
     bdc:	740a0000 	strvc	r0, [sl], #-0
     be0:	00000bf2 	strdeq	r0, [r0], -r2
     be4:	04810d00 	streq	r0, [r1], #3328	; 0xd00
     be8:	750a0000 	strvc	r0, [sl, #-0]
     bec:	00000073 	andeq	r0, r0, r3, ror r0
     bf0:	040e0004 	streq	r0, [lr], #-4
     bf4:	0000002c 	andeq	r0, r0, ip, lsr #32
     bf8:	000ae613 	andeq	lr, sl, r3, lsl r6
     bfc:	b30a6800 	movwlt	r6, #43008	; 0xa800
     c00:	00000d22 	andeq	r0, r0, r2, lsr #26
     c04:	00705f0c 	rsbseq	r5, r0, ip, lsl #30
     c08:	0bf2b40a 	bleq	ffcadc38 <Image$$RW_IRAM3$$Base+0xdfc2dc38>
     c0c:	0c000000 	stceq	0, cr0, [r0], {-0}
     c10:	0a00725f 	beq	1d594 <__etext+0x1abd4>
     c14:	000073b5 			; <UNDEFINED> instruction: 0x000073b5
     c18:	5f0c0400 	svcpl	0x000c0400
     c1c:	b60a0077 			; <UNDEFINED> instruction: 0xb60a0077
     c20:	00000073 	andeq	r0, r0, r3, ror r0
     c24:	019d0d08 	orrseq	r0, sp, r8, lsl #26
     c28:	b70a0000 	strlt	r0, [sl, -r0]
     c2c:	00000033 	andeq	r0, r0, r3, lsr r0
     c30:	0adb0d0c 	beq	ff6c4068 <Image$$RW_IRAM3$$Base+0xdf644068>
     c34:	b80a0000 	stmdalt	sl, {}	; <UNPREDICTABLE>
     c38:	00000033 	andeq	r0, r0, r3, lsr r0
     c3c:	625f0c0e 	subsvs	r0, pc, #3584	; 0xe00
     c40:	b90a0066 	stmdblt	sl, {r1, r2, r5, r6}
     c44:	00000bcd 	andeq	r0, r0, sp, asr #23
     c48:	02a80d10 	adceq	r0, r8, #16, 26	; 0x400
     c4c:	ba0a0000 	blt	280c54 <__etext+0x27e294>
     c50:	00000073 	andeq	r0, r0, r3, ror r0
     c54:	06750d18 			; <UNDEFINED> instruction: 0x06750d18
     c58:	c10a0000 	mrsgt	r0, (UNDEF: 10)
     c5c:	00000a43 	andeq	r0, r0, r3, asr #20
     c60:	0d9b0d1c 	ldceq	13, cr0, [fp, #112]	; 0x70
     c64:	c30a0000 	movwgt	r0, #40960	; 0xa000
     c68:	00000fcc 	andeq	r0, r0, ip, asr #31
     c6c:	0bf80d20 	bleq	ffe040f4 <Image$$RW_IRAM3$$Base+0xdfd840f4>
     c70:	c50a0000 	strgt	r0, [sl, #-0]
     c74:	00000ffb 	strdeq	r0, [r0], -fp
     c78:	07be0d24 	ldreq	r0, [lr, r4, lsr #26]!
     c7c:	c80a0000 	stmdagt	sl, {}	; <UNPREDICTABLE>
     c80:	0000101f 	andeq	r1, r0, pc, lsl r0
     c84:	09db0d28 	ldmibeq	fp, {r3, r5, r8, sl, fp}^
     c88:	c90a0000 	stmdbgt	sl, {}	; <UNPREDICTABLE>
     c8c:	00001039 	andeq	r1, r0, r9, lsr r0
     c90:	755f0c2c 	ldrbvc	r0, [pc, #-3116]	; 6c <__isr_vector+0x6c>
     c94:	cc0a0062 	stcgt	0, cr0, [sl], {98}	; 0x62
     c98:	00000bcd 	andeq	r0, r0, sp, asr #23
     c9c:	755f0c30 	ldrbvc	r0, [pc, #-3120]	; 74 <__isr_vector+0x74>
     ca0:	cd0a0070 	stcgt	0, cr0, [sl, #-448]	; 0xfffffe40
     ca4:	00000bf2 	strdeq	r0, [r0], -r2
     ca8:	755f0c38 	ldrbvc	r0, [pc, #-3128]	; 78 <__isr_vector+0x78>
     cac:	ce0a0072 	mcrgt	0, 0, r0, cr10, cr2, {3}
     cb0:	00000073 	andeq	r0, r0, r3, ror r0
     cb4:	0a9a0d3c 	beq	fe6841ac <Image$$RW_IRAM3$$Base+0xde6041ac>
     cb8:	d10a0000 	mrsle	r0, (UNDEF: 10)
     cbc:	000000b3 	strheq	r0, [r0], -r3
     cc0:	0a8b0d40 	beq	fe2c41c8 <Image$$RW_IRAM3$$Base+0xde2441c8>
     cc4:	d20a0000 	andle	r0, sl, #0
     cc8:	0000103f 	andeq	r1, r0, pc, lsr r0
     ccc:	6c5f0c43 	mrrcvs	12, 4, r0, pc, cr3	; <UNPREDICTABLE>
     cd0:	d50a0062 	strle	r0, [sl, #-98]	; 0x62
     cd4:	00000bcd 	andeq	r0, r0, sp, asr #23
     cd8:	0a910d44 	beq	fe4441f0 <Image$$RW_IRAM3$$Base+0xde3c41f0>
     cdc:	d80a0000 	stmdale	sl, {}	; <UNPREDICTABLE>
     ce0:	00000073 	andeq	r0, r0, r3, ror r0
     ce4:	087d0d4c 	ldmdaeq	sp!, {r2, r3, r6, r8, sl, fp}^
     ce8:	d90a0000 	stmdble	sl, {}	; <UNPREDICTABLE>
     cec:	000009b7 			; <UNDEFINED> instruction: 0x000009b7
     cf0:	03110d50 	tsteq	r1, #80, 26	; 0x1400
     cf4:	dc0a0000 	stcle	0, cr0, [sl], {-0}
     cf8:	00000d40 	andeq	r0, r0, r0, asr #26
     cfc:	09d50d54 	ldmibeq	r5, {r2, r4, r6, r8, sl, fp}^
     d00:	e00a0000 	and	r0, sl, r0
     d04:	00000a38 	andeq	r0, r0, r8, lsr sl
     d08:	008d0d58 	addeq	r0, sp, r8, asr sp
     d0c:	e20a0000 	and	r0, sl, #0
     d10:	00000a2d 	andeq	r0, r0, sp, lsr #20
     d14:	0c3c0d5c 	ldceq	13, cr0, [ip], #-368	; 0xfffffe90
     d18:	e30a0000 	movw	r0, #40960	; 0xa000
     d1c:	00000073 	andeq	r0, r0, r3, ror r0
     d20:	73170064 	tstvc	r7, #100	; 0x64
     d24:	40000000 	andmi	r0, r0, r0
     d28:	1800000d 	stmdane	r0, {r0, r2, r3}
     d2c:	00000d40 	andeq	r0, r0, r0, asr #26
     d30:	000a4318 	andeq	r4, sl, r8, lsl r3
     d34:	0fbf1800 	svceq	0x00bf1800
     d38:	73180000 	tstvc	r8, #0
     d3c:	00000000 	andeq	r0, r0, r0
     d40:	0d46040e 	cfstrdeq	mvd0, [r6, #-56]	; 0xffffffc8
     d44:	23190000 	tstcs	r9, #0
     d48:	28000003 	stmdacs	r0, {r0, r1}
     d4c:	02390a04 	eorseq	r0, r9, #4, 20	; 0x4000
     d50:	00000fbf 			; <UNDEFINED> instruction: 0x00000fbf
     d54:	570af01a 	smuadpl	sl, sl, r0
     d58:	000e9b02 	andeq	r9, lr, r2, lsl #22
     d5c:	0ad01b00 	beq	ff407964 <Image$$RW_IRAM3$$Base+0xdf387964>
     d60:	0e5e0259 	mrceq	2, 2, r0, cr14, cr9, {2}
     d64:	a01c0000 	andsge	r0, ip, r0
     d68:	0a000003 	beq	d7c <serial_init+0xac>
     d6c:	007a025a 	rsbseq	r0, sl, sl, asr r2
     d70:	1c000000 	stcne	0, cr0, [r0], {-0}
     d74:	00000766 	andeq	r0, r0, r6, ror #14
     d78:	bf025b0a 	svclt	0x00025b0a
     d7c:	0400000f 	streq	r0, [r0], #-15
     d80:	0009061c 	andeq	r0, r9, ip, lsl r6
     d84:	025c0a00 	subseq	r0, ip, #0, 20
     d88:	000010e1 	andeq	r1, r0, r1, ror #1
     d8c:	05901c08 	ldreq	r1, [r0, #3080]	; 0xc08
     d90:	5d0a0000 	stcpl	0, cr0, [sl, #-0]
     d94:	000aa902 	andeq	sl, sl, r2, lsl #18
     d98:	cf1c2400 	svcgt	0x001c2400
     d9c:	0a00000b 	beq	dd0 <serial_init+0x100>
     da0:	0073025e 	rsbseq	r0, r3, lr, asr r2
     da4:	1c480000 	marne	acc0, r0, r8
     da8:	00000979 	andeq	r0, r0, r9, ror r9
     dac:	6c025f0a 	stcvs	15, cr5, [r2], {10}
     db0:	50000000 	andpl	r0, r0, r0
     db4:	000d7e1c 	andeq	r7, sp, ip, lsl lr
     db8:	02600a00 	rsbeq	r0, r0, #0, 20
     dbc:	0000109c 	muleq	r0, ip, r0
     dc0:	0aa01c58 	beq	fe807f28 <Image$$RW_IRAM3$$Base+0xde787f28>
     dc4:	610a0000 	mrsvs	r0, (UNDEF: 10)
     dc8:	000a2d02 	andeq	r2, sl, r2, lsl #26
     dcc:	4a1c6800 	bmi	71add4 <__etext+0x718414>
     dd0:	0a000003 	beq	de4 <serial_init+0x114>
     dd4:	0a2d0262 	beq	b41764 <__etext+0xb3eda4>
     dd8:	1c700000 	ldclne	0, cr0, [r0], #-0
     ddc:	00000953 	andeq	r0, r0, r3, asr r9
     de0:	2d02630a 	stccs	3, cr6, [r2, #-40]	; 0xffffffd8
     de4:	7800000a 	stmdavc	r0, {r1, r3}
     de8:	0008e31c 	andeq	lr, r8, ip, lsl r3
     dec:	02640a00 	rsbeq	r0, r4, #0, 20
     df0:	000010f1 	strdeq	r1, [r0], -r1	; <UNPREDICTABLE>
     df4:	0b961c80 	bleq	fe587ffc <Image$$RW_IRAM3$$Base+0xde507ffc>
     df8:	650a0000 	strvs	r0, [sl, #-0]
     dfc:	00110102 	andseq	r0, r1, r2, lsl #2
     e00:	701c8800 	andsvc	r8, ip, r0, lsl #16
     e04:	0a00000a 	beq	e34 <serial_init+0x164>
     e08:	00730266 	rsbseq	r0, r3, r6, ror #4
     e0c:	1ca00000 	stcne	0, cr0, [r0]
     e10:	00000508 	andeq	r0, r0, r8, lsl #10
     e14:	2d02670a 	stccs	7, cr6, [r2, #-40]	; 0xffffffd8
     e18:	a400000a 	strge	r0, [r0], #-10
     e1c:	0005d91c 	andeq	sp, r5, ip, lsl r9
     e20:	02680a00 	rsbeq	r0, r8, #0, 20
     e24:	00000a2d 	andeq	r0, r0, sp, lsr #20
     e28:	04651cac 	strbteq	r1, [r5], #-3244	; 0xcac
     e2c:	690a0000 	stmdbvs	sl, {}	; <UNPREDICTABLE>
     e30:	000a2d02 	andeq	r2, sl, r2, lsl #26
     e34:	f21cb400 	vshl.s16	d11, d0, d12
     e38:	0a000006 	beq	e58 <serial_init+0x188>
     e3c:	0a2d026a 	beq	b417ec <__etext+0xb3ee2c>
     e40:	1cbc0000 	ldcne	0, cr0, [ip]
     e44:	00000921 	andeq	r0, r0, r1, lsr #18
     e48:	2d026b0a 	vstrcs	d6, [r2, #-40]	; 0xffffffd8
     e4c:	c400000a 	strgt	r0, [r0], #-10
     e50:	000af31c 	andeq	pc, sl, ip, lsl r3	; <UNPREDICTABLE>
     e54:	026c0a00 	rsbeq	r0, ip, #0, 20
     e58:	00000073 	andeq	r0, r0, r3, ror r0
     e5c:	f01b00cc 			; <UNDEFINED> instruction: 0xf01b00cc
     e60:	8202720a 	andhi	r7, r2, #-1610612736	; 0xa0000000
     e64:	1c00000e 	stcne	0, cr0, [r0], {14}
     e68:	00000972 	andeq	r0, r0, r2, ror r9
     e6c:	1102740a 	tstne	r2, sl, lsl #8
     e70:	00000011 	andeq	r0, r0, r1, lsl r0
     e74:	00052b1c 	andeq	r2, r5, ip, lsl fp
     e78:	02750a00 	rsbseq	r0, r5, #0, 20
     e7c:	00001121 	andeq	r1, r0, r1, lsr #2
     e80:	231d0078 	tstcs	sp, #120	; 0x78
     e84:	0a000003 	beq	e98 <mbed_assert_internal+0xc>
     e88:	0d5d026d 	lfmeq	f0, 2, [sp, #-436]	; 0xfffffe4c
     e8c:	331d0000 	tstcc	sp, #0
     e90:	0a000006 	beq	eb0 <mbed_assert_internal+0x24>
     e94:	0e5e0276 	mrceq	2, 2, r0, cr14, cr6, {3}
     e98:	1c000000 	stcne	0, cr0, [r0], {-0}
     e9c:	00000af5 	strdeq	r0, [r0], -r5
     ea0:	73023b0a 	movwvc	r3, #11018	; 0x2b0a
     ea4:	00000000 	andeq	r0, r0, r0
     ea8:	0005241c 	andeq	r2, r5, ip, lsl r4
     eac:	02400a00 	subeq	r0, r0, #0, 20
     eb0:	00001096 	muleq	r0, r6, r0
     eb4:	007e1c04 	rsbseq	r1, lr, r4, lsl #24
     eb8:	400a0000 	andmi	r0, sl, r0
     ebc:	00109602 	andseq	r9, r0, r2, lsl #12
     ec0:	d11c0800 	tstle	ip, r0, lsl #16
     ec4:	0a000003 	beq	ed8 <error+0x20>
     ec8:	10960240 	addsne	r0, r6, r0, asr #4
     ecc:	1c0c0000 	stcne	0, cr0, [ip], {-0}
     ed0:	000006b6 			; <UNDEFINED> instruction: 0x000006b6
     ed4:	7302420a 	movwvc	r4, #8714	; 0x220a
     ed8:	10000000 	andne	r0, r0, r0
     edc:	0009671c 	andeq	r6, r9, ip, lsl r7
     ee0:	02430a00 	subeq	r0, r3, #0, 20
     ee4:	00001131 	andeq	r1, r0, r1, lsr r1
     ee8:	07541c14 	smmlaeq	r4, r4, ip, r1
     eec:	450a0000 	strmi	r0, [sl, #-0]
     ef0:	00007302 	andeq	r7, r0, r2, lsl #6
     ef4:	7d1c3000 	ldcvc	0, cr3, [ip, #-0]
     ef8:	0a000002 	beq	f08 <gpio_init_out+0x8>
     efc:	0ff00246 	svceq	0x00f00246
     f00:	1c340000 	ldcne	0, cr0, [r4], #-0
     f04:	00000c06 	andeq	r0, r0, r6, lsl #24
     f08:	7302480a 	movwvc	r4, #10250	; 0x280a
     f0c:	38000000 	stmdacc	r0, {}	; <UNPREDICTABLE>
     f10:	000abd1c 	andeq	fp, sl, ip, lsl sp
     f14:	024a0a00 	subeq	r0, sl, #0, 20
     f18:	0000114c 	andeq	r1, r0, ip, asr #2
     f1c:	03d91c3c 	bicseq	r1, r9, #60, 24	; 0x3c00
     f20:	4d0a0000 	stcmi	0, cr0, [sl, #-0]
     f24:	000aa302 	andeq	sl, sl, r2, lsl #6
     f28:	c71c4000 	ldrgt	r4, [ip, -r0]
     f2c:	0a000003 	beq	f40 <gpio_init_out+0x40>
     f30:	0073024e 	rsbseq	r0, r3, lr, asr #4
     f34:	1c440000 	marne	acc0, r0, r4
     f38:	00000b3b 	andeq	r0, r0, fp, lsr fp
     f3c:	a3024f0a 	movwge	r4, #12042	; 0x2f0a
     f40:	4800000a 	stmdami	r0, {r1, r3}
     f44:	0006da1c 	andeq	sp, r6, ip, lsl sl
     f48:	02500a00 	subseq	r0, r0, #0, 20
     f4c:	00001152 	andeq	r1, r0, r2, asr r1
     f50:	01f91c4c 	mvnseq	r1, ip, asr #24
     f54:	530a0000 	movwpl	r0, #40960	; 0xa000
     f58:	00007302 	andeq	r7, r0, r2, lsl #6
     f5c:	c41c5000 	ldrgt	r5, [ip], #-0
     f60:	0a000005 	beq	f7c <gpio_init_out_ex+0x38>
     f64:	0fbf0254 	svceq	0x00bf0254
     f68:	1c540000 	mrane	r0, r4, acc0
     f6c:	0000060f 	andeq	r0, r0, pc, lsl #12
     f70:	5402770a 	strpl	r7, [r2], #-1802	; 0x70a
     f74:	5800000d 	stmdapl	r0, {r0, r2, r3}
     f78:	0000a21e 	andeq	sl, r0, lr, lsl r2
     f7c:	027b0a00 	rsbseq	r0, fp, #0, 20
     f80:	00000bb0 			; <UNDEFINED> instruction: 0x00000bb0
     f84:	3f1e0148 	svccc	0x001e0148
     f88:	0a00000a 	beq	fb8 <pinmap_pinout+0x20>
     f8c:	0b72027c 	bleq	1c81984 <__etext+0x1c7efc4>
     f90:	014c0000 	mrseq	r0, (UNDEF: 76)
     f94:	0002011e 	andeq	r0, r2, lr, lsl r1
     f98:	02800a00 	addeq	r0, r0, #0, 20
     f9c:	00001163 	andeq	r1, r0, r3, ror #2
     fa0:	ad1e02dc 	lfmge	f0, 4, [lr, #-880]	; 0xfffffc90
     fa4:	0a00000a 	beq	fd4 <pinmap_pinout+0x3c>
     fa8:	105b0285 	subsne	r0, fp, r5, lsl #5
     fac:	02e00000 	rsceq	r0, r0, #0
     fb0:	00032a1e 	andeq	r2, r3, lr, lsl sl
     fb4:	02860a00 	addeq	r0, r6, #0, 20
     fb8:	0000116f 	andeq	r1, r0, pc, ror #2
     fbc:	0e0002ec 	cdpeq	2, 0, cr0, cr0, cr12, {7}
     fc0:	000fc504 	andeq	ip, pc, r4, lsl #10
     fc4:	08010200 	stmdaeq	r1, {r9}
     fc8:	00000423 	andeq	r0, r0, r3, lsr #8
     fcc:	0d22040e 	cfstrseq	mvf0, [r2, #-56]!	; 0xffffffc8
     fd0:	73170000 	tstvc	r7, #0
     fd4:	f0000000 			; <UNDEFINED> instruction: 0xf0000000
     fd8:	1800000f 	stmdane	r0, {r0, r1, r2, r3}
     fdc:	00000d40 	andeq	r0, r0, r0, asr #26
     fe0:	000a4318 	andeq	r4, sl, r8, lsl r3
     fe4:	0ff01800 	svceq	0x00f01800
     fe8:	73180000 	tstvc	r8, #0
     fec:	00000000 	andeq	r0, r0, r0
     ff0:	0ff6040e 	svceq	0x00f6040e
     ff4:	c51f0000 	ldrgt	r0, [pc, #-0]	; ffc <pinmap_find_peripheral>
     ff8:	0e00000f 	cdpeq	0, 0, cr0, cr0, cr15, {0}
     ffc:	000fd204 	andeq	sp, pc, r4, lsl #4
    1000:	09c21700 	stmibeq	r2, {r8, r9, sl, ip}^
    1004:	101f0000 	andsne	r0, pc, r0
    1008:	40180000 	andsmi	r0, r8, r0
    100c:	1800000d 	stmdane	r0, {r0, r2, r3}
    1010:	00000a43 	andeq	r0, r0, r3, asr #20
    1014:	0009c218 	andeq	ip, r9, r8, lsl r2
    1018:	00731800 	rsbseq	r1, r3, r0, lsl #16
    101c:	0e000000 	cdpeq	0, 0, cr0, cr0, cr0, {0}
    1020:	00100104 	andseq	r0, r0, r4, lsl #2
    1024:	00731700 	rsbseq	r1, r3, r0, lsl #14
    1028:	10390000 	eorsne	r0, r9, r0
    102c:	40180000 	andsmi	r0, r8, r0
    1030:	1800000d 	stmdane	r0, {r0, r2, r3}
    1034:	00000a43 	andeq	r0, r0, r3, asr #20
    1038:	25040e00 	strcs	r0, [r4, #-3584]	; 0xe00
    103c:	06000010 			; <UNDEFINED> instruction: 0x06000010
    1040:	0000002c 	andeq	r0, r0, ip, lsr #32
    1044:	0000104f 	andeq	r1, r0, pc, asr #32
    1048:	00009707 	andeq	r9, r0, r7, lsl #14
    104c:	0f000000 	svceq	0x00000000
    1050:	0000029a 	muleq	r0, sl, r2
    1054:	f8011d0a 			; <UNDEFINED> instruction: 0xf8011d0a
    1058:	2000000b 	andcs	r0, r0, fp
    105c:	000009e2 	andeq	r0, r0, r2, ror #19
    1060:	01210a0c 	teqeq	r1, ip, lsl #20
    1064:	00001090 	muleq	r0, r0, r0
    1068:	00097e1c 	andeq	r7, r9, ip, lsl lr
    106c:	01230a00 	teqeq	r3, r0, lsl #20
    1070:	00001090 	muleq	r0, r0, r0
    1074:	06141c00 	ldreq	r1, [r4], -r0, lsl #24
    1078:	240a0000 	strcs	r0, [sl], #-0
    107c:	00007301 	andeq	r7, r0, r1, lsl #6
    1080:	611c0400 	tstvs	ip, r0, lsl #8
    1084:	0a000009 	beq	10b0 <gpio_set+0x28>
    1088:	10960125 	addsne	r0, r6, r5, lsr #2
    108c:	00080000 	andeq	r0, r8, r0
    1090:	105b040e 	subsne	r0, fp, lr, lsl #8
    1094:	040e0000 	streq	r0, [lr], #-0
    1098:	0000104f 	andeq	r1, r0, pc, asr #32
    109c:	000da620 	andeq	sl, sp, r0, lsr #12
    10a0:	3d0a0e00 	stccc	14, cr0, [sl, #-0]
    10a4:	0010d101 	andseq	sp, r0, r1, lsl #2
    10a8:	07b81c00 	ldreq	r1, [r8, r0, lsl #24]!
    10ac:	3e0a0000 	cdpcc	0, 0, cr0, cr10, cr0, {0}
    10b0:	0010d101 	andseq	sp, r0, r1, lsl #2
    10b4:	021c0000 	andseq	r0, ip, #0
    10b8:	0a000005 	beq	10d4 <gpio_init+0x1c>
    10bc:	10d1013f 	sbcsne	r0, r1, pc, lsr r1
    10c0:	1c060000 	stcne	0, cr0, [r6], {-0}
    10c4:	000008f5 	strdeq	r0, [r0], -r5
    10c8:	3a01400a 	bcc	510f8 <__etext+0x4e738>
    10cc:	0c000000 	stceq	0, cr0, [r0], {-0}
    10d0:	003a0600 	eorseq	r0, sl, r0, lsl #12
    10d4:	10e10000 	rscne	r0, r1, r0
    10d8:	97070000 	strls	r0, [r7, -r0]
    10dc:	02000000 	andeq	r0, r0, #0
    10e0:	0fc50600 	svceq	0x00c50600
    10e4:	10f10000 	rscsne	r0, r1, r0
    10e8:	97070000 	strls	r0, [r7, -r0]
    10ec:	19000000 	stmdbne	r0, {}	; <UNPREDICTABLE>
    10f0:	0fc50600 	svceq	0x00c50600
    10f4:	11010000 	mrsne	r0, (UNDEF: 1)
    10f8:	97070000 	strls	r0, [r7, -r0]
    10fc:	07000000 	streq	r0, [r0, -r0]
    1100:	0fc50600 	svceq	0x00c50600
    1104:	11110000 	tstne	r1, r0
    1108:	97070000 	strls	r0, [r7, -r0]
    110c:	17000000 	strne	r0, [r0, -r0]
    1110:	0bf20600 	bleq	ffc82918 <Image$$RW_IRAM3$$Base+0xdfc02918>
    1114:	11210000 	teqne	r1, r0
    1118:	97070000 	strls	r0, [r7, -r0]
    111c:	1d000000 	stcne	0, cr0, [r0, #-0]
    1120:	007a0600 	rsbseq	r0, sl, r0, lsl #12
    1124:	11310000 	teqne	r1, r0
    1128:	97070000 	strls	r0, [r7, -r0]
    112c:	1d000000 	stcne	0, cr0, [r0, #-0]
    1130:	0fc50600 	svceq	0x00c50600
    1134:	11410000 	mrsne	r0, (UNDEF: 65)
    1138:	97070000 	strls	r0, [r7, -r0]
    113c:	18000000 	stmdane	r0, {}	; <UNPREDICTABLE>
    1140:	114c2100 	mrsne	r2, (UNDEF: 92)
    1144:	40180000 	andsmi	r0, r8, r0
    1148:	0000000d 	andeq	r0, r0, sp
    114c:	1141040e 	cmpne	r1, lr, lsl #8
    1150:	040e0000 	streq	r0, [lr], #-0
    1154:	00000aa3 	andeq	r0, r0, r3, lsr #21
    1158:	00116321 	andseq	r6, r1, r1, lsr #6
    115c:	00731800 	rsbseq	r1, r3, r0, lsl #16
    1160:	0e000000 	cdpeq	0, 0, cr0, cr0, cr0, {0}
    1164:	00116904 	andseq	r6, r1, r4, lsl #18
    1168:	58040e00 	stmdapl	r4, {r9, sl, fp}
    116c:	06000011 			; <UNDEFINED> instruction: 0x06000011
    1170:	00000bf8 	strdeq	r0, [r0], -r8
    1174:	0000117f 	andeq	r1, r0, pc, ror r1
    1178:	00009707 	andeq	r9, r0, r7, lsl #14
    117c:	0b000200 	bleq	1984 <_malloc_r+0x98>
    1180:	481f0b08 	ldmdami	pc, {r3, r8, r9, fp}	; <UNPREDICTABLE>
    1184:	a400000b 	strge	r0, [r0], #-11
    1188:	0d000011 	stceq	0, cr0, [r0, #-68]	; 0xffffffbc
    118c:	000005a7 	andeq	r0, r0, r7, lsr #11
    1190:	0073200b 	rsbseq	r2, r3, fp
    1194:	0c000000 	stceq	0, cr0, [r0], {-0}
    1198:	006d6572 	rsbeq	r6, sp, r2, ror r5
    119c:	0073210b 	rsbseq	r2, r3, fp, lsl #2
    11a0:	00040000 	andeq	r0, r4, r0
    11a4:	000b4903 	andeq	r4, fp, r3, lsl #18
    11a8:	7f220b00 	svcvc	0x00220b00
    11ac:	0b000011 	bleq	11f8 <pin_mode+0x74>
    11b0:	b1250b08 	teqlt	r5, r8, lsl #22
    11b4:	d4000002 	strle	r0, [r0], #-2
    11b8:	0d000011 	stceq	0, cr0, [r0, #-68]	; 0xffffffbc
    11bc:	000005a7 	andeq	r0, r0, r7, lsr #11
    11c0:	004c260b 	subeq	r2, ip, fp, lsl #12
    11c4:	0c000000 	stceq	0, cr0, [r0], {-0}
    11c8:	006d6572 	rsbeq	r6, sp, r2, ror r5
    11cc:	004c270b 	subeq	r2, ip, fp, lsl #14
    11d0:	00040000 	andeq	r0, r4, r0
    11d4:	0002b203 	andeq	fp, r2, r3, lsl #4
    11d8:	af280b00 	svcge	0x00280b00
    11dc:	03000011 	movweq	r0, #17
    11e0:	00000bc1 	andeq	r0, r0, r1, asr #23
    11e4:	11ea360b 	mvnne	r3, fp, lsl #12
    11e8:	040e0000 	streq	r0, [lr], #-0
    11ec:	000011f0 	strdeq	r1, [r0], -r0
    11f0:	00007317 	andeq	r7, r0, r7, lsl r3
    11f4:	00120400 	andseq	r0, r2, r0, lsl #8
    11f8:	12041800 	andne	r1, r4, #0, 16
    11fc:	04180000 	ldreq	r0, [r8], #-0
    1200:	00000012 	andeq	r0, r0, r2, lsl r0
    1204:	120a040e 	andne	r0, sl, #234881024	; 0xe000000
    1208:	23220000 	teqcs	r2, #0
    120c:	00647473 	rsbeq	r7, r4, r3, ror r4
    1210:	14b00010 	ldrtne	r0, [r0], #16
    1214:	0c240000 	stceq	0, cr0, [r4], #-0
    1218:	0011a476 	andseq	sl, r1, r6, ror r4
    121c:	770c2400 	strvc	r2, [ip, -r0, lsl #8]
    1220:	000011d4 	ldrdeq	r1, [r0], -r4
    1224:	b0790c24 	rsbslt	r0, r9, r4, lsr #24
    1228:	24000014 	strcs	r0, [r0], #-20
    122c:	14b77a0c 	ldrtne	r7, [r7], #2572	; 0xa0c
    1230:	0c240000 	stceq	0, cr0, [r4], #-0
    1234:	0014cc7b 	andseq	ip, r4, fp, ror ip
    1238:	810c2400 	tsthi	ip, r0, lsl #8
    123c:	000014e1 	andeq	r1, r0, r1, ror #9
    1240:	fd820c24 	stc2	12, cr0, [r2, #144]	; 0x90
    1244:	24000014 	strcs	r0, [r0], #-20
    1248:	1512830c 	ldrne	r8, [r2, #-780]	; 0x30c
    124c:	0c240000 	stceq	0, cr0, [r4], #-0
    1250:	00152784 	andseq	r2, r5, r4, lsl #15
    1254:	850c2400 	strhi	r2, [ip, #-1024]	; 0x400
    1258:	00001550 	andeq	r1, r0, r0, asr r5
    125c:	6a860c24 	bvs	fe1842f4 <Image$$RW_IRAM3$$Base+0xde1042f4>
    1260:	24000015 	strcs	r0, [r0], #-21
    1264:	1584870c 	strne	r8, [r4, #1804]	; 0x70c
    1268:	0c240000 	stceq	0, cr0, [r4], #-0
    126c:	00159588 	andseq	r9, r5, r8, lsl #11
    1270:	890c2400 	stmdbhi	ip, {sl, sp}
    1274:	000015a6 	andeq	r1, r0, r6, lsr #11
    1278:	bb8a0c24 	bllt	fe284310 <Image$$RW_IRAM3$$Base+0xde204310>
    127c:	24000015 	strcs	r0, [r0], #-21
    1280:	15d08b0c 	ldrbne	r8, [r0, #2828]	; 0xb0c
    1284:	0c240000 	stceq	0, cr0, [r4], #-0
    1288:	0015ea8c 	andseq	lr, r5, ip, lsl #21
    128c:	8e0c2400 	cfcpyshi	mvf2, mvf12
    1290:	000015ff 	strdeq	r1, [r0], -pc	; <UNPREDICTABLE>
    1294:	198f0c24 	stmibne	pc, {r2, r5, sl, fp}	; <UNPREDICTABLE>
    1298:	24000016 	strcs	r0, [r0], #-22
    129c:	1645900c 	strbne	r9, [r5], -ip
    12a0:	0c240000 	stceq	0, cr0, [r4], #-0
    12a4:	00166492 	mulseq	r6, r2, r4
    12a8:	980c2400 	stmdals	ip, {sl, sp}
    12ac:	00001684 	andeq	r1, r0, r4, lsl #13
    12b0:	8f990c24 	svchi	0x00990c24
    12b4:	24000016 	strcs	r0, [r0], #-22
    12b8:	16a99a0c 	strtne	r9, [r9], ip, lsl #20
    12bc:	0c240000 	stceq	0, cr0, [r4], #-0
    12c0:	0016ba9b 	mulseq	r6, fp, sl
    12c4:	9c0c2400 	cfstrsls	mvf2, [ip], {-0}
    12c8:	000016da 	ldrdeq	r1, [r0], -sl
    12cc:	f99d0c24 			; <UNDEFINED> instruction: 0xf99d0c24
    12d0:	24000016 	strcs	r0, [r0], #-22
    12d4:	17189e0c 	ldrne	r9, [r8, -ip, lsl #28]
    12d8:	0c240000 	stceq	0, cr0, [r4], #-0
    12dc:	00172da0 	andseq	r2, r7, r0, lsr #27
    12e0:	a10c2400 	tstge	ip, r0, lsl #8
    12e4:	00001757 	andeq	r1, r0, r7, asr r7
    12e8:	93620d24 	cmnls	r2, #36, 26	; 0x900
    12ec:	24000017 	strcs	r0, [r0], #-23
    12f0:	179e630d 	ldrne	r6, [lr, sp, lsl #6]
    12f4:	0d240000 	stceq	0, cr0, [r4, #-0]
    12f8:	0017a965 	andseq	sl, r7, r5, ror #18
    12fc:	660d2400 	strvs	r2, [sp], -r0, lsl #8
    1300:	000017c0 	andeq	r1, r0, r0, asr #15
    1304:	d5670d24 	strble	r0, [r7, #-3364]!	; 0xd24
    1308:	24000017 	strcs	r0, [r0], #-23
    130c:	17ea680d 	strbne	r6, [sl, sp, lsl #16]!
    1310:	0d240000 	stceq	0, cr0, [r4, #-0]
    1314:	0017ff69 	andseq	pc, r7, r9, ror #30
    1318:	6a0d2400 	bvs	34a320 <__etext+0x347960>
    131c:	00001814 	andeq	r1, r0, r4, lsl r8
    1320:	296b0d24 	stmdbcs	fp!, {r2, r5, r8, sl, fp}^
    1324:	24000018 	strcs	r0, [r0], #-24
    1328:	18496c0d 	stmdane	r9, {r0, r2, r3, sl, fp, sp, lr}^
    132c:	0d240000 	stceq	0, cr0, [r4, #-0]
    1330:	0018686d 	andseq	r6, r8, sp, ror #16
    1334:	6e0d2400 	cfcpysvs	mvf2, mvf13
    1338:	00001882 	andeq	r1, r0, r2, lsl #17
    133c:	9d6f0d24 	stclls	13, cr0, [pc, #-144]!	; 12b4 <us_ticker_irq_handler+0x4>
    1340:	24000018 	strcs	r0, [r0], #-24
    1344:	18b7700d 	ldmne	r7!, {r0, r2, r3, ip, sp, lr}
    1348:	0d240000 	stceq	0, cr0, [r4, #-0]
    134c:	0018d171 	andseq	sp, r8, r1, ror r1
    1350:	720d2400 	andvc	r2, sp, #0, 8
    1354:	000018f5 	strdeq	r1, [r0], -r5
    1358:	14730d24 	ldrbtne	r0, [r3], #-3364	; 0xd24
    135c:	24000019 	strcs	r0, [r0], #-25
    1360:	192f740d 	stmdbne	pc!, {r0, r2, r3, sl, ip, sp, lr}	; <UNPREDICTABLE>
    1364:	0d240000 	stceq	0, cr0, [r4, #-0]
    1368:	00194e75 	andseq	r4, r9, r5, ror lr
    136c:	760d2400 	strvc	r2, [sp], -r0, lsl #8
    1370:	00001973 	andeq	r1, r0, r3, ror r9
    1374:	88770d24 	ldmdahi	r7!, {r2, r5, r8, sl, fp}^
    1378:	24000019 	strcs	r0, [r0], #-25
    137c:	19ac780d 	stmibne	ip!, {r0, r2, r3, fp, ip, sp, lr}
    1380:	0d240000 	stceq	0, cr0, [r4, #-0]
    1384:	0019c179 	andseq	ip, r9, r9, ror r1
    1388:	7c0d2400 	cfstrsvc	mvf2, [sp], {-0}
    138c:	000019cc 	andeq	r1, r0, ip, asr #19
    1390:	e17e0d24 	cmn	lr, r4, lsr #26
    1394:	24000019 	strcs	r0, [r0], #-25
    1398:	19f27f0d 	ldmibne	r2!, {r0, r2, r3, r8, r9, sl, fp, ip, sp, lr}^
    139c:	0d240000 	stceq	0, cr0, [r4, #-0]
    13a0:	001a0880 	andseq	r0, sl, r0, lsl #17
    13a4:	810d2400 	tsthi	sp, r0, lsl #8
    13a8:	00001a22 	andeq	r1, r0, r2, lsr #20
    13ac:	37820d24 	strcc	r0, [r2, r4, lsr #26]
    13b0:	2400001a 	strcs	r0, [r0], #-26
    13b4:	1a4c830d 	bne	1321ff0 <__etext+0x131f630>
    13b8:	0d240000 	stceq	0, cr0, [r4, #-0]
    13bc:	001a6184 	andseq	r6, sl, r4, lsl #3
    13c0:	850d2400 	strhi	r2, [sp, #-1024]	; 0x400
    13c4:	00001a7b 	andeq	r1, r0, fp, ror sl
    13c8:	8c860d24 	stchi	13, cr0, [r6], {36}	; 0x24
    13cc:	2400001a 	strcs	r0, [r0], #-26
    13d0:	1aa2870d 	bne	fe8a300c <Image$$RW_IRAM3$$Base+0xde82300c>
    13d4:	0d240000 	stceq	0, cr0, [r4, #-0]
    13d8:	001ab888 	andseq	fp, sl, r8, lsl #17
    13dc:	890d2400 	stmdbhi	sp, {sl, sp}
    13e0:	00001adc 	ldrdeq	r1, [r0], -ip
    13e4:	f78a0d24 			; <UNDEFINED> instruction: 0xf78a0d24
    13e8:	2400001a 	strcs	r0, [r0], #-26
    13ec:	1b128b0d 	blne	4a4028 <__etext+0x4a1668>
    13f0:	0d240000 	stceq	0, cr0, [r4, #-0]
    13f4:	001b1d8d 	andseq	r1, fp, sp, lsl #27
    13f8:	8f0d2400 	svchi	0x000d2400
    13fc:	00001b32 	andeq	r1, r0, r2, lsr fp
    1400:	4c900d24 	ldcmi	13, cr0, [r0], {36}	; 0x24
    1404:	2400001b 	strcs	r0, [r0], #-27
    1408:	1b6b910d 	blne	1ae5844 <__etext+0x1ae2e84>
    140c:	0d240000 	stceq	0, cr0, [r4, #-0]
    1410:	001b8592 	mulseq	fp, r2, r5
    1414:	4b0e2400 	blmi	38a41c <__etext+0x387a5c>
    1418:	00001ba4 	andeq	r1, r0, r4, lsr #23
    141c:	c34c0e24 	movtgt	r0, #52772	; 0xce24
    1420:	2400001b 	strcs	r0, [r0], #-27
    1424:	1be24d0e 	blne	ff894864 <Image$$RW_IRAM3$$Base+0xdf814864>
    1428:	0e240000 	cdpeq	0, 2, cr0, cr4, cr0, {0}
    142c:	001c014e 	andseq	r0, ip, lr, asr #2
    1430:	4f0e2400 	svcmi	0x000e2400
    1434:	00001c20 	andeq	r1, r0, r0, lsr #24
    1438:	3f500e24 	svccc	0x00500e24
    143c:	2400001c 	strcs	r0, [r0], #-28
    1440:	1c59510e 	ldfnee	f5, [r9], {14}
    1444:	0e240000 	cdpeq	0, 2, cr0, cr4, cr0, {0}
    1448:	001c7352 	andseq	r7, ip, r2, asr r3
    144c:	530e2400 	movwpl	r2, #58368	; 0xe400
    1450:	00001c8d 	andeq	r1, r0, sp, lsl #25
    1454:	a7540e24 	ldrbge	r0, [r4, -r4, lsr #28]
    1458:	2400001c 	strcs	r0, [r0], #-28
    145c:	1cc1550e 	cfstr64ne	mvdx5, [r1], {14}
    1460:	0e240000 	cdpeq	0, 2, cr0, cr4, cr0, {0}
    1464:	001cd656 	andseq	sp, ip, r6, asr r6
    1468:	570e2400 	strpl	r2, [lr, -r0, lsl #8]
    146c:	00001ceb 	andeq	r1, r0, fp, ror #25
    1470:	0a580e24 	beq	1604d08 <__etext+0x1602348>
    1474:	2400001d 	strcs	r0, [r0], #-29
    1478:	1d29590e 	stcne	9, cr5, [r9, #-56]!	; 0xffffffc8
    147c:	0e240000 	cdpeq	0, 2, cr0, cr4, cr0, {0}
    1480:	001d485a 	andseq	r4, sp, sl, asr r8
    1484:	5b0e2400 	blpl	38a48c <__etext+0x387acc>
    1488:	00001d62 	andeq	r1, r0, r2, ror #26
    148c:	7c5c0e24 	mrrcvc	14, 2, r0, ip, cr4
    1490:	2400001d 	strcs	r0, [r0], #-29
    1494:	1d9b5d0e 	ldcne	13, cr5, [fp, #56]	; 0x38
    1498:	0e240000 	cdpeq	0, 2, cr0, cr4, cr0, {0}
    149c:	001db55e 	andseq	fp, sp, lr, asr r5
    14a0:	5f0e2400 	svcpl	0x000e2400
    14a4:	00001dcf 	andeq	r1, r0, pc, asr #27
    14a8:	e9600e24 	stmdb	r0!, {r2, r5, r9, sl, fp}^
    14ac:	0000001d 	andeq	r0, r0, sp, lsl r0
    14b0:	0002b925 	andeq	fp, r2, r5, lsr #18
    14b4:	26420b00 	strbcs	r0, [r2], -r0, lsl #22
    14b8:	00736261 	rsbseq	r6, r3, r1, ror #4
    14bc:	0073430b 	rsbseq	r4, r3, fp, lsl #6
    14c0:	14cc0000 	strbne	r0, [ip], #0
    14c4:	73180000 	tstvc	r8, #0
    14c8:	00000000 	andeq	r0, r0, r0
    14cc:	0000a327 	andeq	sl, r0, r7, lsr #6
    14d0:	73440b00 	movtvc	r0, #19200	; 0x4b00
    14d4:	e1000000 	mrs	r0, (UNDEF: 0)
    14d8:	18000014 	stmdane	r0, {r2, r4}
    14dc:	00000bc6 	andeq	r0, r0, r6, asr #23
    14e0:	025a2700 	subseq	r2, sl, #0, 14
    14e4:	450b0000 	strmi	r0, [fp, #-0]
    14e8:	000014f6 	strdeq	r1, [r0], -r6
    14ec:	000014f6 	strdeq	r1, [r0], -r6
    14f0:	000ff018 	andeq	pc, pc, r8, lsl r0	; <UNPREDICTABLE>
    14f4:	08020000 	stmdaeq	r2, {}	; <UNPREDICTABLE>
    14f8:	0009b304 	andeq	fp, r9, r4, lsl #6
    14fc:	025f2700 	subseq	r2, pc, #0, 14
    1500:	490b0000 	stmdbmi	fp, {}	; <UNPREDICTABLE>
    1504:	00000073 	andeq	r0, r0, r3, ror r0
    1508:	00001512 	andeq	r1, r0, r2, lsl r5
    150c:	000ff018 	andeq	pc, pc, r8, lsl r0	; <UNPREDICTABLE>
    1510:	64270000 	strtvs	r0, [r7], #-0
    1514:	0b000002 	bleq	1524 <__aeabi_fdiv+0xc4>
    1518:	00004c4b 	andeq	r4, r0, fp, asr #24
    151c:	00152700 	andseq	r2, r5, r0, lsl #14
    1520:	0ff01800 	svceq	0x00f01800
    1524:	27000000 	strcs	r0, [r0, -r0]
    1528:	00000a83 	andeq	r0, r0, r3, lsl #21
    152c:	0a434d0b 	beq	10d4960 <__etext+0x10d1fa0>
    1530:	15500000 	ldrbne	r0, [r0, #-0]
    1534:	04180000 	ldreq	r0, [r8], #-0
    1538:	18000012 	stmdane	r0, {r1, r4}
    153c:	00001204 	andeq	r1, r0, r4, lsl #4
    1540:	0009a118 	andeq	sl, r9, r8, lsl r1
    1544:	09a11800 	stmibeq	r1!, {fp, ip}
    1548:	df180000 	svcle	0x00180000
    154c:	00000011 	andeq	r0, r0, r1, lsl r0
    1550:	000b1e27 	andeq	r1, fp, r7, lsr #28
    1554:	43520b00 	cmpmi	r2, #0, 22
    1558:	6a00000a 	bvs	1588 <__aeabi_fdiv+0x128>
    155c:	18000015 	stmdane	r0, {r0, r2, r4}
    1560:	000009a1 	andeq	r0, r0, r1, lsr #19
    1564:	0009a118 	andeq	sl, r9, r8, lsl r1
    1568:	64260000 	strtvs	r0, [r6], #-0
    156c:	0b007669 	bleq	1ef18 <__etext+0x1c558>
    1570:	0011a453 	andseq	sl, r1, r3, asr r4
    1574:	00158400 	andseq	r8, r5, r0, lsl #8
    1578:	00731800 	rsbseq	r1, r3, r0, lsl #16
    157c:	73180000 	tstvc	r8, #0
    1580:	00000000 	andeq	r0, r0, r0
    1584:	0000a528 	andeq	sl, r0, r8, lsr #10
    1588:	95540b00 	ldrbls	r0, [r4, #-2816]	; 0xb00
    158c:	18000015 	stmdane	r0, {r0, r2, r4}
    1590:	00000073 	andeq	r0, r0, r3, ror r0
    1594:	03172800 	tsteq	r7, #0, 16
    1598:	550b0000 	strpl	r0, [fp, #-0]
    159c:	000015a6 	andeq	r1, r0, r6, lsr #11
    15a0:	000a4318 	andeq	r4, sl, r8, lsl r3
    15a4:	ff270000 			; <UNDEFINED> instruction: 0xff270000
    15a8:	0b00000b 	bleq	15dc <__aeabi_f2iz+0x44>
    15ac:	000fbf56 	andeq	fp, pc, r6, asr pc	; <UNPREDICTABLE>
    15b0:	0015bb00 	andseq	fp, r5, r0, lsl #22
    15b4:	0ff01800 	svceq	0x00f01800
    15b8:	27000000 	strcs	r0, [r0, -r0]
    15bc:	000005ac 	andeq	r0, r0, ip, lsr #11
    15c0:	004c5e0b 	subeq	r5, ip, fp, lsl #28
    15c4:	15d00000 	ldrbne	r0, [r0]
    15c8:	4c180000 	ldcmi	0, cr0, [r8], {-0}
    15cc:	00000000 	andeq	r0, r0, r0
    15d0:	000ae127 	andeq	lr, sl, r7, lsr #2
    15d4:	d45f0b00 	ldrble	r0, [pc], #-2816	; 15dc <__aeabi_f2iz+0x44>
    15d8:	ea000011 	b	1624 <_cleanup_r+0x4>
    15dc:	18000015 	stmdane	r0, {r0, r2, r4}
    15e0:	0000004c 	andeq	r0, r0, ip, asr #32
    15e4:	00004c18 	andeq	r4, r0, r8, lsl ip
    15e8:	2d270000 	stccs	0, cr0, [r7, #-0]
    15ec:	0b000005 	bleq	1608 <exit+0x10>
    15f0:	000a4360 	andeq	r4, sl, r0, ror #6
    15f4:	0015ff00 	andseq	pc, r5, r0, lsl #30
    15f8:	09a11800 	stmibeq	r1!, {fp, ip}
    15fc:	27000000 	strcs	r0, [r0, -r0]
    1600:	00000609 	andeq	r0, r0, r9, lsl #12
    1604:	0073610b 	rsbseq	r6, r3, fp, lsl #2
    1608:	16190000 	ldrne	r0, [r9], -r0
    160c:	f0180000 			; <UNDEFINED> instruction: 0xf0180000
    1610:	1800000f 	stmdane	r0, {r0, r1, r2, r3}
    1614:	000009a1 	andeq	r0, r0, r1, lsr #19
    1618:	08da2700 	ldmeq	sl, {r8, r9, sl, sp}^
    161c:	670b0000 	strvs	r0, [fp, -r0]
    1620:	000009a1 	andeq	r0, r0, r1, lsr #19
    1624:	00001638 	andeq	r1, r0, r8, lsr r6
    1628:	00163818 	andseq	r3, r6, r8, lsl r8
    162c:	0ff01800 	svceq	0x00f01800
    1630:	a1180000 	tstge	r8, r0
    1634:	00000009 	andeq	r0, r0, r9
    1638:	163e040e 	ldrtne	r0, [lr], -lr, lsl #8
    163c:	04020000 	streq	r0, [r2], #-0
    1640:	00087507 	andeq	r7, r8, r7, lsl #10
    1644:	0b822700 	bleq	fe08b24c <Image$$RW_IRAM3$$Base+0xde00b24c>
    1648:	630b0000 	movwvs	r0, #45056	; 0xb000
    164c:	00000073 	andeq	r0, r0, r3, ror r0
    1650:	00001664 	andeq	r1, r0, r4, ror #12
    1654:	00163818 	andseq	r3, r6, r8, lsl r8
    1658:	0ff01800 	svceq	0x00f01800
    165c:	a1180000 	tstge	r8, r0
    1660:	00000009 	andeq	r0, r0, r9
    1664:	000b1828 	andeq	r1, fp, r8, lsr #16
    1668:	847b0b00 	ldrbthi	r0, [fp], #-2816	; 0xb00
    166c:	18000016 	stmdane	r0, {r1, r2, r4}
    1670:	00000a43 	andeq	r0, r0, r3, asr #20
    1674:	0009a118 	andeq	sl, r9, r8, lsl r1
    1678:	09a11800 	stmibeq	r1!, {fp, ip}
    167c:	df180000 	svcle	0x00180000
    1680:	00000011 	andeq	r0, r0, r1, lsl r0
    1684:	0003a829 	andeq	sl, r3, r9, lsr #16
    1688:	737c0b00 	cmnvc	ip, #0, 22
    168c:	27000000 	strcs	r0, [r0, -r0]
    1690:	00000a2f 	andeq	r0, r0, pc, lsr #20
    1694:	0a437d0b 	beq	10e0ac8 <__etext+0x10de108>
    1698:	16a90000 	strtne	r0, [r9], r0
    169c:	43180000 	tstmi	r8, #0
    16a0:	1800000a 	stmdane	r0, {r1, r3}
    16a4:	000009a1 	andeq	r0, r0, r1, lsr #19
    16a8:	072d2800 	streq	r2, [sp, -r0, lsl #16]!
    16ac:	820b0000 	andhi	r0, fp, #0
    16b0:	000016ba 			; <UNDEFINED> instruction: 0x000016ba
    16b4:	00007a18 	andeq	r7, r0, r8, lsl sl
    16b8:	93270000 	teqls	r7, #0
    16bc:	0b000009 	bleq	16e8 <__sinit+0x48>
    16c0:	0014f683 	andseq	pc, r4, r3, lsl #13
    16c4:	0016d400 	andseq	sp, r6, r0, lsl #8
    16c8:	0ff01800 	svceq	0x00f01800
    16cc:	d4180000 	ldrle	r0, [r8], #-0
    16d0:	00000016 	andeq	r0, r0, r6, lsl r0
    16d4:	0fbf040e 	svceq	0x00bf040e
    16d8:	a1270000 	teqge	r7, r0
    16dc:	0b000009 	bleq	1708 <__sfp+0x8>
    16e0:	00004c90 	muleq	r0, r0, ip
    16e4:	0016f900 	andseq	pc, r6, r0, lsl #18
    16e8:	0ff01800 	svceq	0x00f01800
    16ec:	d4180000 	ldrle	r0, [r8], #-0
    16f0:	18000016 	stmdane	r0, {r1, r2, r4}
    16f4:	00000073 	andeq	r0, r0, r3, ror r0
    16f8:	06982700 	ldreq	r2, [r8], r0, lsl #14
    16fc:	920b0000 	andls	r0, fp, #0
    1700:	0000005e 	andeq	r0, r0, lr, asr r0
    1704:	00001718 	andeq	r1, r0, r8, lsl r7
    1708:	000ff018 	andeq	pc, pc, r8, lsl r0	; <UNPREDICTABLE>
    170c:	16d41800 	ldrbne	r1, [r4], r0, lsl #16
    1710:	73180000 	tstvc	r8, #0
    1714:	00000000 	andeq	r0, r0, r0
    1718:	0007cb27 	andeq	ip, r7, r7, lsr #22
    171c:	73950b00 	orrsvc	r0, r5, #0, 22
    1720:	2d000000 	stccs	0, cr0, [r0, #-0]
    1724:	18000017 	stmdane	r0, {r0, r1, r2, r4}
    1728:	00000ff0 	strdeq	r0, [r0], -r0	; <UNPREDICTABLE>
    172c:	06d12700 	ldrbeq	r2, [r1], r0, lsl #14
    1730:	690b0000 	stmdbvs	fp, {}	; <UNPREDICTABLE>
    1734:	000009a1 	andeq	r0, r0, r1, lsr #19
    1738:	0000174c 	andeq	r1, r0, ip, asr #14
    173c:	000fbf18 	andeq	fp, pc, r8, lsl pc	; <UNPREDICTABLE>
    1740:	174c1800 	strbne	r1, [ip, -r0, lsl #16]
    1744:	a1180000 	tstge	r8, r0
    1748:	00000009 	andeq	r0, r0, r9
    174c:	1752040e 	ldrbne	r0, [r2, -lr, lsl #8]
    1750:	3e1f0000 	cdpcc	0, 1, cr0, cr15, cr0, {0}
    1754:	27000016 	smladcs	r0, r6, r0, r0
    1758:	0000030a 	andeq	r0, r0, sl, lsl #6
    175c:	0073650b 	rsbseq	r6, r3, fp, lsl #10
    1760:	17710000 	ldrbne	r0, [r1, -r0]!
    1764:	bf180000 	svclt	0x00180000
    1768:	1800000f 	stmdane	r0, {r0, r1, r2, r3}
    176c:	0000163e 	andeq	r1, r0, lr, lsr r6
    1770:	03ed0300 	mvneq	r0, #0, 6
    1774:	280f0000 	stmdacs	pc, {}	; <UNPREDICTABLE>
    1778:	0000177c 	andeq	r1, r0, ip, ror r7
    177c:	000dae13 	andeq	sl, sp, r3, lsl lr
    1780:	00100400 	andseq	r0, r0, r0, lsl #8
    1784:	00001793 	muleq	r0, r3, r7
    1788:	000c112a 	andeq	r1, ip, sl, lsr #2
    178c:	000a4300 	andeq	r4, sl, r0, lsl #6
    1790:	03000000 	movweq	r0, #0
    1794:	0000029c 	muleq	r0, ip, r2
    1798:	104f3411 	subne	r3, pc, r1, lsl r4	; <UNPREDICTABLE>
    179c:	d4030000 	strle	r0, [r3], #-0
    17a0:	1100000a 	tstne	r0, sl
    17a4:	0009c239 	andeq	ip, r9, r9, lsr r2
    17a8:	070e2800 	streq	r2, [lr, -r0, lsl #16]
    17ac:	d7110000 	ldrle	r0, [r1, -r0]
    17b0:	000017ba 			; <UNDEFINED> instruction: 0x000017ba
    17b4:	0017ba18 	andseq	fp, r7, r8, lsl sl
    17b8:	040e0000 	streq	r0, [lr], #-0
    17bc:	00001793 	muleq	r0, r3, r7
    17c0:	00069127 	andeq	r9, r6, r7, lsr #2
    17c4:	73a81100 			; <UNDEFINED> instruction: 0x73a81100
    17c8:	d5000000 	strle	r0, [r0, #-0]
    17cc:	18000017 	stmdane	r0, {r0, r1, r2, r4}
    17d0:	000017ba 			; <UNDEFINED> instruction: 0x000017ba
    17d4:	01922700 	orrseq	r2, r2, r0, lsl #14
    17d8:	d8110000 	ldmdale	r1, {}	; <UNPREDICTABLE>
    17dc:	00000073 	andeq	r0, r0, r3, ror r0
    17e0:	000017ea 	andeq	r1, r0, sl, ror #15
    17e4:	0017ba18 	andseq	fp, r7, r8, lsl sl
    17e8:	ce270000 	cdpgt	0, 2, cr0, cr7, cr0, {0}
    17ec:	11000009 	tstne	r0, r9
    17f0:	000073d9 	ldrdeq	r7, [r0], -r9
    17f4:	0017ff00 	andseq	pc, r7, r0, lsl #30
    17f8:	17ba1800 	ldrne	r1, [sl, r0, lsl #16]!
    17fc:	27000000 	strcs	r0, [r0, -r0]
    1800:	00000d83 	andeq	r0, r0, r3, lsl #27
    1804:	0073a911 	rsbseq	sl, r3, r1, lsl r9
    1808:	18140000 	ldmdane	r4, {}	; <UNPREDICTABLE>
    180c:	ba180000 	blt	601814 <__etext+0x5fee54>
    1810:	00000017 	andeq	r0, r0, r7, lsl r0
    1814:	00035827 	andeq	r5, r3, r7, lsr #16
    1818:	73bd1100 			; <UNDEFINED> instruction: 0x73bd1100
    181c:	29000000 	stmdbcs	r0, {}	; <UNPREDICTABLE>
    1820:	18000018 	stmdane	r0, {r3, r4}
    1824:	000017ba 			; <UNDEFINED> instruction: 0x000017ba
    1828:	094b2700 	stmdbeq	fp, {r8, r9, sl, sp}^
    182c:	cd110000 	ldcgt	0, cr0, [r1, #-0]
    1830:	00000073 	andeq	r0, r0, r3, ror r0
    1834:	00001843 	andeq	r1, r0, r3, asr #16
    1838:	0017ba18 	andseq	fp, r7, r8, lsl sl
    183c:	18431800 	stmdane	r3, {fp, ip}^
    1840:	0e000000 	cdpeq	0, 0, cr0, cr0, cr0, {0}
    1844:	00179e04 	andseq	r9, r7, r4, lsl #28
    1848:	035e2700 	cmpeq	lr, #0, 14
    184c:	be110000 	cdplt	0, 1, cr0, cr1, cr0, {0}
    1850:	00000fbf 			; <UNDEFINED> instruction: 0x00000fbf
    1854:	00001868 	andeq	r1, r0, r8, ror #16
    1858:	000fbf18 	andeq	fp, pc, r8, lsl pc	; <UNPREDICTABLE>
    185c:	00731800 	rsbseq	r1, r3, r0, lsl #16
    1860:	ba180000 	blt	601868 <__etext+0x5feea8>
    1864:	00000017 	andeq	r0, r0, r7, lsl r0
    1868:	000bee27 	andeq	lr, fp, r7, lsr #28
    186c:	badc1100 	blt	ff705c74 <Image$$RW_IRAM3$$Base+0xdf685c74>
    1870:	82000017 	andhi	r0, r0, #23
    1874:	18000018 	stmdane	r0, {r3, r4}
    1878:	00000ff0 	strdeq	r0, [r0], -r0	; <UNPREDICTABLE>
    187c:	000ff018 	andeq	pc, pc, r8, lsl r0	; <UNPREDICTABLE>
    1880:	12270000 	eorne	r0, r7, #0
    1884:	11000004 	tstne	r0, r4
    1888:	000073ad 	andeq	r7, r0, sp, lsr #7
    188c:	00189d00 	andseq	r9, r8, r0, lsl #26
    1890:	17ba1800 	ldrne	r1, [sl, r0, lsl #16]!
    1894:	f0180000 			; <UNDEFINED> instruction: 0xf0180000
    1898:	2b00000f 	blcs	18dc <_free_r+0x78>
    189c:	01972700 	orrseq	r2, r7, r0, lsl #14
    18a0:	bf110000 	svclt	0x00110000
    18a4:	00000073 	andeq	r0, r0, r3, ror r0
    18a8:	000018b7 			; <UNDEFINED> instruction: 0x000018b7
    18ac:	00007318 	andeq	r7, r0, r8, lsl r3
    18b0:	17ba1800 	ldrne	r1, [sl, r0, lsl #16]!
    18b4:	27000000 	strcs	r0, [r0, -r0]
    18b8:	000001b0 			; <UNDEFINED> instruction: 0x000001b0
    18bc:	0073c011 	rsbseq	ip, r3, r1, lsl r0
    18c0:	18d10000 	ldmne	r1, {}^	; <UNPREDICTABLE>
    18c4:	f0180000 			; <UNDEFINED> instruction: 0xf0180000
    18c8:	1800000f 	stmdane	r0, {r0, r1, r2, r3}
    18cc:	000017ba 			; <UNDEFINED> instruction: 0x000017ba
    18d0:	03442700 	movteq	r2, #18176	; 0x4700
    18d4:	c8110000 	ldmdagt	r1, {}	; <UNPREDICTABLE>
    18d8:	000009a1 	andeq	r0, r0, r1, lsr #19
    18dc:	000018f5 	strdeq	r1, [r0], -r5
    18e0:	000a4318 	andeq	r4, sl, r8, lsl r3
    18e4:	09a11800 	stmibeq	r1!, {fp, ip}
    18e8:	a1180000 	tstge	r8, r0
    18ec:	18000009 	stmdane	r0, {r0, r3}
    18f0:	000017ba 			; <UNDEFINED> instruction: 0x000017ba
    18f4:	03642700 	cmneq	r4, #0, 14
    18f8:	aa110000 	bge	441900 <__etext+0x43ef40>
    18fc:	000017ba 			; <UNDEFINED> instruction: 0x000017ba
    1900:	00001914 	andeq	r1, r0, r4, lsl r9
    1904:	000ff018 	andeq	pc, pc, r8, lsl r0	; <UNPREDICTABLE>
    1908:	0ff01800 	svceq	0x00f01800
    190c:	ba180000 	blt	601914 <__etext+0x5fef54>
    1910:	00000017 	andeq	r0, r0, r7, lsl r0
    1914:	0009e827 	andeq	lr, r9, r7, lsr #16
    1918:	73af1100 			; <UNDEFINED> instruction: 0x73af1100
    191c:	2f000000 	svccs	0x00000000
    1920:	18000019 	stmdane	r0, {r0, r3, r4}
    1924:	000017ba 			; <UNDEFINED> instruction: 0x000017ba
    1928:	000ff018 	andeq	pc, pc, r8, lsl r0	; <UNPREDICTABLE>
    192c:	27002b00 	strcs	r2, [r0, -r0, lsl #22]
    1930:	00000a7d 	andeq	r0, r0, sp, ror sl
    1934:	0073cf11 	rsbseq	ip, r3, r1, lsl pc
    1938:	194e0000 	stmdbne	lr, {}^	; <UNPREDICTABLE>
    193c:	ba180000 	blt	601944 <__etext+0x5fef84>
    1940:	18000017 	stmdane	r0, {r0, r1, r2, r4}
    1944:	0000004c 	andeq	r0, r0, ip, asr #32
    1948:	00007318 	andeq	r7, r0, r8, lsl r3
    194c:	b5270000 	strlt	r0, [r7, #-0]!
    1950:	1100000a 	tstne	r0, sl
    1954:	000073d3 	ldrdeq	r7, [r0], -r3
    1958:	00196800 	andseq	r6, r9, r0, lsl #16
    195c:	17ba1800 	ldrne	r1, [sl, r0, lsl #16]!
    1960:	68180000 	ldmdavs	r8, {}	; <UNPREDICTABLE>
    1964:	00000019 	andeq	r0, r0, r9, lsl r0
    1968:	196e040e 	stmdbne	lr!, {r1, r2, r3, sl}^
    196c:	9e1f0000 	cdpls	0, 1, cr0, cr15, cr0, {0}
    1970:	27000017 	smladcs	r0, r7, r0, r0
    1974:	0000051e 	andeq	r0, r0, lr, lsl r5
    1978:	004cd511 	subeq	sp, ip, r1, lsl r5
    197c:	19880000 	stmibne	r8, {}	; <UNPREDICTABLE>
    1980:	ba180000 	blt	601988 <__etext+0x5fefc8>
    1984:	00000017 	andeq	r0, r0, r7, lsl r0
    1988:	0000e627 	andeq	lr, r0, r7, lsr #12
    198c:	a1c91100 	bicge	r1, r9, r0, lsl #2
    1990:	ac000009 	stcge	0, cr0, [r0], {9}
    1994:	18000019 	stmdane	r0, {r0, r3, r4}
    1998:	00001204 	andeq	r1, r0, r4, lsl #4
    199c:	0009a118 	andeq	sl, r9, r8, lsl r1
    19a0:	09a11800 	stmibeq	r1!, {fp, ip}
    19a4:	ba180000 	blt	6019ac <__etext+0x5fefec>
    19a8:	00000017 	andeq	r0, r0, r7, lsl r0
    19ac:	00035927 	andeq	r5, r3, r7, lsr #18
    19b0:	73c11100 	bicvc	r1, r1, #0, 2
    19b4:	c1000000 	mrsgt	r0, (UNDEF: 0)
    19b8:	18000019 	stmdane	r0, {r0, r3, r4}
    19bc:	000017ba 			; <UNDEFINED> instruction: 0x000017ba
    19c0:	0c4a2900 	mcrreq	9, 0, r2, sl, cr0
    19c4:	c2110000 	andsgt	r0, r1, #0
    19c8:	00000073 	andeq	r0, r0, r3, ror r0
    19cc:	00035f27 	andeq	r5, r3, r7, lsr #30
    19d0:	bfc31100 	svclt	0x00c31100
    19d4:	e100000f 	tst	r0, pc
    19d8:	18000019 	stmdane	r0, {r0, r3, r4}
    19dc:	00000fbf 			; <UNDEFINED> instruction: 0x00000fbf
    19e0:	05bd2800 	ldreq	r2, [sp, #2048]!	; 0x800
    19e4:	da110000 	ble	4419ec <__etext+0x43f02c>
    19e8:	000019f2 	strdeq	r1, [r0], -r2
    19ec:	000ff018 	andeq	pc, pc, r8, lsl r0	; <UNPREDICTABLE>
    19f0:	13270000 	teqne	r7, #0
    19f4:	11000004 	tstne	r0, r4
    19f8:	000073b1 			; <UNDEFINED> instruction: 0x000073b1
    19fc:	001a0800 	andseq	r0, sl, r0, lsl #16
    1a00:	0ff01800 	svceq	0x00f01800
    1a04:	002b0000 	eoreq	r0, fp, r0
    1a08:	00019827 	andeq	r9, r1, r7, lsr #16
    1a0c:	73c41100 	bicvc	r1, r4, #0, 2
    1a10:	22000000 	andcs	r0, r0, #0
    1a14:	1800001a 	stmdane	r0, {r1, r3, r4}
    1a18:	00000073 	andeq	r0, r0, r3, ror r0
    1a1c:	0017ba18 	andseq	fp, r7, r8, lsl sl
    1a20:	bf270000 	svclt	0x00270000
    1a24:	11000003 	tstne	r0, r3
    1a28:	000073c5 	andeq	r7, r0, r5, asr #7
    1a2c:	001a3700 	andseq	r3, sl, r0, lsl #14
    1a30:	00731800 	rsbseq	r1, r3, r0, lsl #16
    1a34:	27000000 	strcs	r0, [r0, -r0]
    1a38:	000001b1 			; <UNDEFINED> instruction: 0x000001b1
    1a3c:	0073c611 	rsbseq	ip, r3, r1, lsl r6
    1a40:	1a4c0000 	bne	1301a48 <__etext+0x12ff088>
    1a44:	f0180000 			; <UNDEFINED> instruction: 0xf0180000
    1a48:	0000000f 	andeq	r0, r0, pc
    1a4c:	00093227 	andeq	r3, r9, r7, lsr #4
    1a50:	73df1100 	bicsvc	r1, pc, #0, 2
    1a54:	61000000 	mrsvs	r0, (UNDEF: 0)
    1a58:	1800001a 	stmdane	r0, {r1, r3, r4}
    1a5c:	00000ff0 	strdeq	r0, [r0], -r0	; <UNPREDICTABLE>
    1a60:	031c2700 	tsteq	ip, #0, 14
    1a64:	e0110000 	ands	r0, r1, r0
    1a68:	00000073 	andeq	r0, r0, r3, ror r0
    1a6c:	00001a7b 	andeq	r1, r0, fp, ror sl
    1a70:	000ff018 	andeq	pc, pc, r8, lsl r0	; <UNPREDICTABLE>
    1a74:	0ff01800 	svceq	0x00f01800
    1a78:	28000000 	stmdacs	r0, {}	; <UNPREDICTABLE>
    1a7c:	000004ed 	andeq	r0, r0, sp, ror #9
    1a80:	1a8cd611 	bne	fe3372cc <Image$$RW_IRAM3$$Base+0xde2b72cc>
    1a84:	ba180000 	blt	601a8c <__etext+0x5ff0cc>
    1a88:	00000017 	andeq	r0, r0, r7, lsl r0
    1a8c:	0009e927 	andeq	lr, r9, r7, lsr #18
    1a90:	73b31100 			; <UNDEFINED> instruction: 0x73b31100
    1a94:	a2000000 	andge	r0, r0, #0
    1a98:	1800001a 	stmdane	r0, {r1, r3, r4}
    1a9c:	00000ff0 	strdeq	r0, [r0], -r0	; <UNPREDICTABLE>
    1aa0:	9a28002b 	bls	a01b54 <__etext+0x9ff194>
    1aa4:	11000004 	tstne	r0, r4
    1aa8:	001ab8ab 	andseq	fp, sl, fp, lsr #17
    1aac:	17ba1800 	ldrne	r1, [sl, r0, lsl #16]!
    1ab0:	bf180000 	svclt	0x00180000
    1ab4:	0000000f 	andeq	r0, r0, pc
    1ab8:	000b4027 	andeq	r4, fp, r7, lsr #32
    1abc:	73ac1100 			; <UNDEFINED> instruction: 0x73ac1100
    1ac0:	dc000000 	stcle	0, cr0, [r0], {-0}
    1ac4:	1800001a 	stmdane	r0, {r1, r3, r4}
    1ac8:	000017ba 			; <UNDEFINED> instruction: 0x000017ba
    1acc:	000fbf18 	andeq	fp, pc, r8, lsl pc	; <UNPREDICTABLE>
    1ad0:	00731800 	rsbseq	r1, r3, r0, lsl #16
    1ad4:	a1180000 	tstge	r8, r0
    1ad8:	00000009 	andeq	r0, r0, r9
    1adc:	000a1a27 	andeq	r1, sl, r7, lsr #20
    1ae0:	73dd1100 	bicsvc	r1, sp, #0, 2
    1ae4:	f7000000 			; <UNDEFINED> instruction: 0xf7000000
    1ae8:	1800001a 	stmdane	r0, {r1, r3, r4}
    1aec:	00000fbf 			; <UNDEFINED> instruction: 0x00000fbf
    1af0:	000ff018 	andeq	pc, pc, r8, lsl r0	; <UNPREDICTABLE>
    1af4:	27002b00 	strcs	r2, [r0, -r0, lsl #22]
    1af8:	0000045e 	andeq	r0, r0, lr, asr r4
    1afc:	0073b511 	rsbseq	fp, r3, r1, lsl r5
    1b00:	1b120000 	blne	481b08 <__etext+0x47f148>
    1b04:	f0180000 			; <UNDEFINED> instruction: 0xf0180000
    1b08:	1800000f 	stmdane	r0, {r0, r1, r2, r3}
    1b0c:	00000ff0 	strdeq	r0, [r0], -r0	; <UNPREDICTABLE>
    1b10:	c029002b 	eorgt	r0, r9, fp, lsr #32
    1b14:	11000006 	tstne	r0, r6
    1b18:	0017baa3 	andseq	fp, r7, r3, lsr #21
    1b1c:	09c72700 	stmibeq	r7, {r8, r9, sl, sp}^
    1b20:	a4110000 	ldrge	r0, [r1], #-0
    1b24:	00000fbf 			; <UNDEFINED> instruction: 0x00000fbf
    1b28:	00001b32 	andeq	r1, r0, r2, lsr fp
    1b2c:	000fbf18 	andeq	fp, pc, r8, lsl pc	; <UNPREDICTABLE>
    1b30:	1e270000 	cdpne	0, 2, cr0, cr7, cr0, {0}
    1b34:	11000007 	tstne	r0, r7
    1b38:	000073c7 	andeq	r7, r0, r7, asr #7
    1b3c:	001b4c00 	andseq	r4, fp, r0, lsl #24
    1b40:	00731800 	rsbseq	r1, r3, r0, lsl #16
    1b44:	ba180000 	blt	601b4c <__etext+0x5ff18c>
    1b48:	00000017 	andeq	r0, r0, r7, lsl r0
    1b4c:	00041127 	andeq	r1, r4, r7, lsr #2
    1b50:	73b71100 			; <UNDEFINED> instruction: 0x73b71100
    1b54:	6b000000 	blvs	1b5c <_vfiprintf_r+0x174>
    1b58:	1800001b 	stmdane	r0, {r0, r1, r3, r4}
    1b5c:	000017ba 			; <UNDEFINED> instruction: 0x000017ba
    1b60:	000ff018 	andeq	pc, pc, r8, lsl r0	; <UNPREDICTABLE>
    1b64:	17711800 	ldrbne	r1, [r1, -r0, lsl #16]!
    1b68:	27000000 	strcs	r0, [r0, -r0]
    1b6c:	00000bde 	ldrdeq	r0, [r0], -lr
    1b70:	0073b911 	rsbseq	fp, r3, r1, lsl r9
    1b74:	1b850000 	blne	fe141b7c <Image$$RW_IRAM3$$Base+0xde0c1b7c>
    1b78:	f0180000 			; <UNDEFINED> instruction: 0xf0180000
    1b7c:	1800000f 	stmdane	r0, {r0, r1, r2, r3}
    1b80:	00001771 	andeq	r1, r0, r1, ror r7
    1b84:	0a192700 	beq	64b78c <__etext+0x648dcc>
    1b88:	bb110000 	bllt	441b90 <__etext+0x43f1d0>
    1b8c:	00000073 	andeq	r0, r0, r3, ror r0
    1b90:	00001ba4 	andeq	r1, r0, r4, lsr #23
    1b94:	000fbf18 	andeq	fp, pc, r8, lsl pc	; <UNPREDICTABLE>
    1b98:	0ff01800 	svceq	0x00f01800
    1b9c:	71180000 	tstvc	r8, r0
    1ba0:	00000017 	andeq	r0, r0, r7, lsl r0
    1ba4:	000db827 	andeq	fp, sp, r7, lsr #16
    1ba8:	43151200 	tstmi	r5, #0, 4
    1bac:	c300000a 	movwgt	r0, #10
    1bb0:	1800001b 	stmdane	r0, {r0, r1, r3, r4}
    1bb4:	00001204 	andeq	r1, r0, r4, lsl #4
    1bb8:	00007318 	andeq	r7, r0, r8, lsl r3
    1bbc:	09a11800 	stmibeq	r1!, {fp, ip}
    1bc0:	27000000 	strcs	r0, [r0, -r0]
    1bc4:	000001f2 	strdeq	r0, [r0], -r2
    1bc8:	00731612 	rsbseq	r1, r3, r2, lsl r6
    1bcc:	1be20000 	blne	ff881bd4 <Image$$RW_IRAM3$$Base+0xdf801bd4>
    1bd0:	04180000 	ldreq	r0, [r8], #-0
    1bd4:	18000012 	stmdane	r0, {r1, r4}
    1bd8:	00001204 	andeq	r1, r0, r4, lsl #4
    1bdc:	0009a118 	andeq	sl, r9, r8, lsl r1
    1be0:	a1270000 	teqge	r7, r0
    1be4:	12000002 	andne	r0, r0, #2
    1be8:	000a4317 	andeq	r4, sl, r7, lsl r3
    1bec:	001c0100 	andseq	r0, ip, r0, lsl #2
    1bf0:	0a431800 	beq	10c7bf8 <__etext+0x10c5238>
    1bf4:	04180000 	ldreq	r0, [r8], #-0
    1bf8:	18000012 	stmdane	r0, {r1, r4}
    1bfc:	000009a1 	andeq	r0, r0, r1, lsr #19
    1c00:	0bb92700 	bleq	fee4b808 <Image$$RW_IRAM3$$Base+0xdedcb808>
    1c04:	18120000 	ldmdane	r2, {}	; <UNPREDICTABLE>
    1c08:	00000a43 	andeq	r0, r0, r3, asr #20
    1c0c:	00001c20 	andeq	r1, r0, r0, lsr #24
    1c10:	000a4318 	andeq	r4, sl, r8, lsl r3
    1c14:	12041800 	andne	r1, r4, #0, 16
    1c18:	a1180000 	tstge	r8, r0
    1c1c:	00000009 	andeq	r0, r0, r9
    1c20:	00070127 	andeq	r0, r7, r7, lsr #2
    1c24:	43191200 	tstmi	r9, #0, 4
    1c28:	3f00000a 	svccc	0x0000000a
    1c2c:	1800001c 	stmdane	r0, {r2, r3, r4}
    1c30:	00000a43 	andeq	r0, r0, r3, asr #20
    1c34:	00007318 	andeq	r7, r0, r8, lsl r3
    1c38:	09a11800 	stmibeq	r1!, {fp, ip}
    1c3c:	27000000 	strcs	r0, [r0, -r0]
    1c40:	00000afc 	strdeq	r0, [r0], -ip
    1c44:	0fbf1a12 	svceq	0x00bf1a12
    1c48:	1c590000 	mrane	r0, r9, acc0
    1c4c:	bf180000 	svclt	0x00180000
    1c50:	1800000f 	stmdane	r0, {r0, r1, r2, r3}
    1c54:	00000ff0 	strdeq	r0, [r0], -r0	; <UNPREDICTABLE>
    1c58:	0d8a2700 	stceq	7, cr2, [sl]
    1c5c:	1c120000 	ldcne	0, cr0, [r2], {-0}
    1c60:	00000073 	andeq	r0, r0, r3, ror r0
    1c64:	00001c73 	andeq	r1, r0, r3, ror ip
    1c68:	000ff018 	andeq	pc, pc, r8, lsl r0	; <UNPREDICTABLE>
    1c6c:	0ff01800 	svceq	0x00f01800
    1c70:	27000000 	strcs	r0, [r0, -r0]
    1c74:	00000269 	andeq	r0, r0, r9, ror #4
    1c78:	00731d12 	rsbseq	r1, r3, r2, lsl sp
    1c7c:	1c8d0000 	stcne	0, cr0, [sp], {0}
    1c80:	f0180000 			; <UNDEFINED> instruction: 0xf0180000
    1c84:	1800000f 	stmdane	r0, {r0, r1, r2, r3}
    1c88:	00000ff0 	strdeq	r0, [r0], -r0	; <UNPREDICTABLE>
    1c8c:	00862700 	addeq	r2, r6, r0, lsl #14
    1c90:	1e120000 	cdpne	0, 1, cr0, cr2, cr0, {0}
    1c94:	00000fbf 			; <UNDEFINED> instruction: 0x00000fbf
    1c98:	00001ca7 	andeq	r1, r0, r7, lsr #25
    1c9c:	000fbf18 	andeq	fp, pc, r8, lsl pc	; <UNPREDICTABLE>
    1ca0:	0ff01800 	svceq	0x00f01800
    1ca4:	27000000 	strcs	r0, [r0, -r0]
    1ca8:	00000c1f 	andeq	r0, r0, pc, lsl ip
    1cac:	09a11f12 	stmibeq	r1!, {r1, r4, r8, r9, sl, fp, ip}
    1cb0:	1cc10000 	stclne	0, cr0, [r1], {0}
    1cb4:	f0180000 			; <UNDEFINED> instruction: 0xf0180000
    1cb8:	1800000f 	stmdane	r0, {r0, r1, r2, r3}
    1cbc:	00000ff0 	strdeq	r0, [r0], -r0	; <UNPREDICTABLE>
    1cc0:	067d2700 	ldrbteq	r2, [sp], -r0, lsl #14
    1cc4:	20120000 	andscs	r0, r2, r0
    1cc8:	00000fbf 			; <UNDEFINED> instruction: 0x00000fbf
    1ccc:	00001cd6 	ldrdeq	r1, [r0], -r6
    1cd0:	00007318 	andeq	r7, r0, r8, lsl r3
    1cd4:	69270000 	stmdbvs	r7!, {}	; <UNPREDICTABLE>
    1cd8:	1200000a 	andne	r0, r0, #10
    1cdc:	0009a121 	andeq	sl, r9, r1, lsr #2
    1ce0:	001ceb00 	andseq	lr, ip, r0, lsl #22
    1ce4:	0ff01800 	svceq	0x00f01800
    1ce8:	27000000 	strcs	r0, [r0, -r0]
    1cec:	000004fa 	strdeq	r0, [r0], -sl
    1cf0:	0fbf2212 	svceq	0x00bf2212
    1cf4:	1d0a0000 	stcne	0, cr0, [sl, #-0]
    1cf8:	bf180000 	svclt	0x00180000
    1cfc:	1800000f 	stmdane	r0, {r0, r1, r2, r3}
    1d00:	00000ff0 	strdeq	r0, [r0], -r0	; <UNPREDICTABLE>
    1d04:	0009a118 	andeq	sl, r9, r8, lsl r1
    1d08:	92270000 	eorls	r0, r7, #0
    1d0c:	12000004 	andne	r0, r0, #4
    1d10:	00007323 	andeq	r7, r0, r3, lsr #6
    1d14:	001d2900 	andseq	r2, sp, r0, lsl #18
    1d18:	0ff01800 	svceq	0x00f01800
    1d1c:	f0180000 			; <UNDEFINED> instruction: 0xf0180000
    1d20:	1800000f 	stmdane	r0, {r0, r1, r2, r3}
    1d24:	000009a1 	andeq	r0, r0, r1, lsr #19
    1d28:	05162700 	ldreq	r2, [r6, #-1792]	; 0x700
    1d2c:	24120000 	ldrcs	r0, [r2], #-0
    1d30:	00000fbf 			; <UNDEFINED> instruction: 0x00000fbf
    1d34:	00001d48 	andeq	r1, r0, r8, asr #26
    1d38:	000fbf18 	andeq	fp, pc, r8, lsl pc	; <UNPREDICTABLE>
    1d3c:	0ff01800 	svceq	0x00f01800
    1d40:	a1180000 	tstge	r8, r0
    1d44:	00000009 	andeq	r0, r0, r9
    1d48:	00089027 	andeq	r9, r8, r7, lsr #32
    1d4c:	a1271200 	teqge	r7, r0, lsl #4
    1d50:	62000009 	andvs	r0, r0, #9
    1d54:	1800001d 	stmdane	r0, {r0, r2, r3, r4}
    1d58:	00000ff0 	strdeq	r0, [r0], -r0	; <UNPREDICTABLE>
    1d5c:	000ff018 	andeq	pc, pc, r8, lsl r0	; <UNPREDICTABLE>
    1d60:	9a270000 	bls	9c1d68 <__etext+0x9bf3a8>
    1d64:	12000009 	andne	r0, r0, #9
    1d68:	000fbf2a 	andeq	fp, pc, sl, lsr #30
    1d6c:	001d7c00 	andseq	r7, sp, r0, lsl #24
    1d70:	0fbf1800 	svceq	0x00bf1800
    1d74:	f0180000 			; <UNDEFINED> instruction: 0xf0180000
    1d78:	0000000f 	andeq	r0, r0, pc
    1d7c:	0006ae27 	andeq	sl, r6, r7, lsr #28
    1d80:	a12c1200 	teqge	ip, r0, lsl #4
    1d84:	9b000009 	blls	1db0 <_printf_i+0xb0>
    1d88:	1800001d 	stmdane	r0, {r0, r2, r3, r4}
    1d8c:	00000fbf 			; <UNDEFINED> instruction: 0x00000fbf
    1d90:	000ff018 	andeq	pc, pc, r8, lsl r0	; <UNPREDICTABLE>
    1d94:	09a11800 	stmibeq	r1!, {fp, ip}
    1d98:	27000000 	strcs	r0, [r0, -r0]
    1d9c:	00000c27 	andeq	r0, r0, r7, lsr #24
    1da0:	0fbf1b12 	svceq	0x00bf1b12
    1da4:	1db50000 	ldcne	0, cr0, [r5]
    1da8:	f0180000 			; <UNDEFINED> instruction: 0xf0180000
    1dac:	1800000f 	stmdane	r0, {r0, r1, r2, r3}
    1db0:	00000073 	andeq	r0, r0, r3, ror r0
    1db4:	09ba2700 	ldmibeq	sl!, {r8, r9, sl, sp}
    1db8:	25120000 	ldrcs	r0, [r2, #-0]
    1dbc:	00000fbf 			; <UNDEFINED> instruction: 0x00000fbf
    1dc0:	00001dcf 	andeq	r1, r0, pc, asr #27
    1dc4:	000ff018 	andeq	pc, pc, r8, lsl r0	; <UNPREDICTABLE>
    1dc8:	0ff01800 	svceq	0x00f01800
    1dcc:	27000000 	strcs	r0, [r0, -r0]
    1dd0:	0000028d 	andeq	r0, r0, sp, lsl #5
    1dd4:	0fbf2612 	svceq	0x00bf2612
    1dd8:	1de90000 	stclne	0, cr0, [r9]
    1ddc:	f0180000 			; <UNDEFINED> instruction: 0xf0180000
    1de0:	1800000f 	stmdane	r0, {r0, r1, r2, r3}
    1de4:	00000073 	andeq	r0, r0, r3, ror r0
    1de8:	09842700 	stmibeq	r4, {r8, r9, sl, sp}
    1dec:	28120000 	ldmdacs	r2, {}	; <UNPREDICTABLE>
    1df0:	00000fbf 			; <UNDEFINED> instruction: 0x00000fbf
    1df4:	00001e03 	andeq	r1, r0, r3, lsl #28
    1df8:	000ff018 	andeq	pc, pc, r8, lsl r0	; <UNPREDICTABLE>
    1dfc:	0ff01800 	svceq	0x00f01800
    1e00:	02000000 	andeq	r0, r0, #0
    1e04:	047b0404 	ldrbteq	r0, [fp], #-1028	; 0x404
    1e08:	08020000 	stmdaeq	r2, {}	; <UNPREDICTABLE>
    1e0c:	0009ae04 	andeq	sl, r9, r4, lsl #28
    1e10:	0da12c00 	stceq	12, cr2, [r1]
    1e14:	17180000 	ldrne	r0, [r8, -r0]
    1e18:	00001f7b 	andeq	r1, r0, fp, ror pc
    1e1c:	0008852d 	andeq	r8, r8, sp, lsr #10
    1e20:	29031800 	stmdbcs	r3, {fp, ip}
    1e24:	00001f34 	andeq	r1, r0, r4, lsr pc
    1e28:	00074f2e 	andeq	r4, r7, lr, lsr #30
    1e2c:	966f0300 	strbtls	r0, [pc], -r0, lsl #6
    1e30:	00000009 	andeq	r0, r0, r9
    1e34:	08852f02 	stmeq	r5, {r1, r8, r9, sl, fp, sp}
    1e38:	30030000 	andcc	r0, r3, r0
    1e3c:	00001f7b 	andeq	r1, r0, fp, ror pc
    1e40:	001e4901 	andseq	r4, lr, r1, lsl #18
    1e44:	001e5400 	andseq	r5, lr, r0, lsl #8
    1e48:	1f7b3000 	svcne	0x007b3000
    1e4c:	30180000 	andscc	r0, r8, r0
    1e50:	00000009 	andeq	r0, r0, r9
    1e54:	0008852f 	andeq	r8, r8, pc, lsr #10
    1e58:	7b390300 	blvc	e42a60 <__etext+0xe400a0>
    1e5c:	0100001f 	tsteq	r0, pc, lsl r0
    1e60:	00001e68 	andeq	r1, r0, r8, ror #28
    1e64:	00001e78 	andeq	r1, r0, r8, ror lr
    1e68:	001f7b30 	andseq	r7, pc, r0, lsr fp	; <UNPREDICTABLE>
    1e6c:	09301800 	ldmdbeq	r0!, {fp, ip}
    1e70:	73180000 	tstvc	r8, #0
    1e74:	00000000 	andeq	r0, r0, r0
    1e78:	000bf931 	andeq	pc, fp, r1, lsr r9	; <UNPREDICTABLE>
    1e7c:	c6420300 	strbgt	r0, [r2], -r0, lsl #6
    1e80:	01000004 	tsteq	r0, r4
    1e84:	00001e8c 	andeq	r1, r0, ip, lsl #29
    1e88:	00001e97 	muleq	r0, r7, lr
    1e8c:	001f7b30 	andseq	r7, pc, r0, lsr fp	; <UNPREDICTABLE>
    1e90:	00731800 	rsbseq	r1, r3, r0, lsl #16
    1e94:	32000000 	andcc	r0, r0, #0
    1e98:	00000d9c 	muleq	r0, ip, sp
    1e9c:	05344c03 	ldreq	r4, [r4, #-3075]!	; 0xc03
    1ea0:	00730000 	rsbseq	r0, r3, r0
    1ea4:	af010000 	svcge	0x00010000
    1ea8:	b500001e 	strlt	r0, [r0, #-30]
    1eac:	3000001e 	andcc	r0, r0, lr, lsl r0
    1eb0:	00001f7b 	andeq	r1, r0, fp, ror pc
    1eb4:	03b23200 			; <UNDEFINED> instruction: 0x03b23200
    1eb8:	56030000 	strpl	r0, [r3], -r0
    1ebc:	00000b5d 	andeq	r0, r0, sp, asr fp
    1ec0:	00000073 	andeq	r0, r0, r3, ror r0
    1ec4:	001ecd01 	andseq	ip, lr, r1, lsl #26
    1ec8:	001ed300 	andseq	sp, lr, r0, lsl #6
    1ecc:	1f7b3000 	svcne	0x007b3000
    1ed0:	32000000 	andcc	r0, r0, #0
    1ed4:	00000381 	andeq	r0, r0, r1, lsl #7
    1ed8:	02bf5d03 	adcseq	r5, pc, #3, 26	; 0xc0
    1edc:	1f810000 	svcne	0x00810000
    1ee0:	eb010000 	bl	41ee8 <__etext+0x3f528>
    1ee4:	f600001e 			; <UNDEFINED> instruction: 0xf600001e
    1ee8:	3000001e 	andcc	r0, r0, lr, lsl r0
    1eec:	00001f7b 	andeq	r1, r0, fp, ror pc
    1ef0:	00007318 	andeq	r7, r0, r8, lsl r3
    1ef4:	81320000 	teqhi	r2, r0
    1ef8:	03000003 	movweq	r0, #3
    1efc:	00073362 	andeq	r3, r7, r2, ror #6
    1f00:	001f8100 	andseq	r8, pc, r0, lsl #2
    1f04:	1f0e0100 	svcne	0x000e0100
    1f08:	1f190000 	svcne	0x00190000
    1f0c:	7b300000 	blvc	c01f14 <__etext+0xbff554>
    1f10:	1800001f 	stmdane	r0, {r0, r1, r2, r3, r4}
    1f14:	00001f81 	andeq	r1, r0, r1, lsl #31
    1f18:	0a5c3300 	beq	170eb20 <__etext+0x170c160>
    1f1c:	69030000 	stmdbvs	r3, {}	; <UNPREDICTABLE>
    1f20:	000004ac 	andeq	r0, r0, ip, lsr #9
    1f24:	00000073 	andeq	r0, r0, r3, ror r0
    1f28:	001f2d01 	andseq	r2, pc, r1, lsl #26
    1f2c:	1f7b3000 	svcne	0x007b3000
    1f30:	00000000 	andeq	r0, r0, r0
    1f34:	4e414334 	mcrmi	3, 2, r4, cr1, cr4, {1}
    1f38:	0c523500 	cfldr64eq	mvdx3, [r2], {-0}
    1f3c:	13010000 	movwne	r0, #4096	; 0x1000
    1f40:	cc0901c2 	stfgts	f0, [r9], {194}	; 0xc2
    1f44:	00000005 	andeq	r0, r0, r5
    1f48:	00000009 	andeq	r0, r0, r9
    1f4c:	4f090100 	svcmi	0x00090100
    1f50:	0200000b 	andeq	r0, r0, #11
    1f54:	0009a809 	andeq	sl, r9, r9, lsl #16
    1f58:	08090300 	stmdaeq	r9, {r8, r9}
    1f5c:	04000007 	streq	r0, [r0], #-7
    1f60:	00068609 	andeq	r8, r6, r9, lsl #12
    1f64:	35090500 	strcc	r0, [r9, #-1280]	; 0x500
    1f68:	0600000b 	streq	r0, [r0], -fp
    1f6c:	00037b09 	andeq	r7, r3, r9, lsl #22
    1f70:	44090700 	strmi	r0, [r9], #-1792	; 0x700
    1f74:	0800000c 	stmdaeq	r0, {r2, r3}
    1f78:	0e000000 	cdpeq	0, 0, cr0, cr0, cr0, {0}
    1f7c:	001e1c04 	andseq	r1, lr, r4, lsl #24
    1f80:	1c043600 	stcne	6, cr3, [r4], {-0}
    1f84:	0200001e 	andeq	r0, r0, #30
    1f88:	09c20201 	stmibeq	r2, {r0, r9}^
    1f8c:	23370000 	teqcs	r7, #0
    1f90:	01000008 	tsteq	r0, r8
    1f94:	1fad1914 	svcne	0x00ad1914
    1f98:	c7090000 	strgt	r0, [r9, -r0]
    1f9c:	0000000a 	andeq	r0, r0, sl
    1fa0:	0005b109 	andeq	fp, r5, r9, lsl #2
    1fa4:	17090100 	strne	r0, [r9, -r0, lsl #2]
    1fa8:	02000007 	andeq	r0, r0, #7
    1fac:	05fa3700 	ldrbeq	r3, [sl, #1792]!	; 0x700
    1fb0:	14010000 	strne	r0, [r1], #-0
    1fb4:	001fc620 	andseq	ip, pc, r0, lsr #12
    1fb8:	063b0900 	ldrteq	r0, [fp], -r0, lsl #18
    1fbc:	09000000 	stmdbeq	r0, {}	; <UNPREDICTABLE>
    1fc0:	0000020b 	andeq	r0, r0, fp, lsl #4
    1fc4:	15380001 	ldrne	r0, [r8, #-1]!
    1fc8:	001e113f 	andseq	r1, lr, pc, lsr r1
    1fcc:	40153800 	andsmi	r3, r5, r0, lsl #16
    1fd0:	0000120b 	andeq	r1, r0, fp, lsl #4
    1fd4:	001e7839 	andseq	r7, lr, r9, lsr r8
    1fd8:	1fe20300 	svcne	0x00e20300
    1fdc:	1ff70000 	svcne	0x00f70000
    1fe0:	8c3a0000 	ldchi	0, cr0, [sl], #-0
    1fe4:	f7000006 			; <UNDEFINED> instruction: 0xf7000006
    1fe8:	3b00001f 	blcc	206c <__swbuf_r+0x90>
    1fec:	00000b27 	andeq	r0, r0, r7, lsr #22
    1ff0:	00734203 	rsbseq	r4, r3, r3, lsl #4
    1ff4:	1f000000 	svcne	0x00000000
    1ff8:	00001f7b 	andeq	r1, r0, fp, ror pc
    1ffc:	001ed339 	andseq	sp, lr, r9, lsr r3
    2000:	200a0300 	andcs	r0, sl, r0, lsl #6
    2004:	201f0000 	andscs	r0, pc, r0
    2008:	8c3a0000 	ldchi	0, cr0, [sl], #-0
    200c:	f7000006 			; <UNDEFINED> instruction: 0xf7000006
    2010:	3b00001f 	blcc	2094 <_write_r+0x10>
    2014:	00000b27 	andeq	r0, r0, r7, lsr #22
    2018:	00735d03 	rsbseq	r5, r3, r3, lsl #26
    201c:	3c000000 	stccc	0, cr0, [r0], {-0}
    2020:	00000bf4 	strdeq	r0, [r0], -r4
    2024:	42032302 	andmi	r2, r3, #134217728	; 0x8000000
    2028:	3d000020 	stccc	0, cr0, [r0, #-128]	; 0xffffff80
    202c:	006a626f 	rsbeq	r6, sl, pc, ror #4
    2030:	20422302 	subcs	r2, r2, r2, lsl #6
    2034:	273b0000 	ldrcs	r0, [fp, -r0]!
    2038:	0200000b 	andeq	r0, r0, #11
    203c:	00007323 	andeq	r7, r0, r3, lsr #6
    2040:	040e0000 	streq	r0, [lr], #-0
    2044:	00000996 	muleq	r0, r6, r9
    2048:	0009ef3e 	andeq	lr, r9, lr, lsr pc
    204c:	20690100 	rsbcs	r0, r9, r0, lsl #2
    2050:	353b0000 	ldrcc	r0, [fp, #-0]!
    2054:	01000003 	tsteq	r0, r3
    2058:	0000730d 	andeq	r7, r0, sp, lsl #6
    205c:	04a13b00 	strteq	r3, [r1], #2816	; 0xb00
    2060:	0d010000 	stceq	0, cr0, [r1, #-0]
    2064:	00000073 	andeq	r0, r0, r3, ror r0
    2068:	0d793f00 	ldcleq	15, cr3, [r9, #-0]
    206c:	06010000 	streq	r0, [r1], -r0
    2070:	00000073 	andeq	r0, r0, r3, ror r0
    2074:	0000019c 	muleq	r0, ip, r1
    2078:	00000028 	andeq	r0, r0, r8, lsr #32
    207c:	21699c01 	cmncs	r9, r1, lsl #24
    2080:	fc400000 	mcrr2	0, 0, r0, r0, cr0
    2084:	9e00001f 	mcrls	0, 0, r0, cr0, cr15, {0}
    2088:	00000001 	andeq	r0, r0, r1
    208c:	01000000 	mrseq	r0, (UNDEF: 0)
    2090:	0020ec08 	eoreq	lr, r0, r8, lsl #24
    2094:	20134100 	andscs	r4, r3, r0, lsl #2
    2098:	42010000 	andmi	r0, r1, #0
    209c:	0000200a 	andeq	r2, r0, sl
    20a0:	015c0306 	cmpeq	ip, r6, lsl #6
    20a4:	439f1000 	orrsmi	r1, pc, #0
    20a8:	00001fd4 	ldrdeq	r1, [r0], -r4
    20ac:	0000019e 	muleq	r0, lr, r1
    20b0:	00000000 	andeq	r0, r0, r0
    20b4:	eb415e03 	bl	10598c8 <__etext+0x1056f08>
    20b8:	0100001f 	tsteq	r0, pc, lsl r0
    20bc:	001fe242 	andseq	lr, pc, r2, asr #4
    20c0:	5c030600 	stcpl	6, cr0, [r3], {-0}
    20c4:	9f100001 	svcls	0x00100001
    20c8:	00201f43 	eoreq	r1, r0, r3, asr #30
    20cc:	00019e00 	andeq	r9, r1, r0, lsl #28
    20d0:	00000000 	andeq	r0, r0, r0
    20d4:	42430300 	submi	r0, r3, #0, 6
    20d8:	0000202b 	andeq	r2, r0, fp, lsr #32
    20dc:	015c0306 	cmpeq	ip, r6, lsl #6
    20e0:	419f1000 	orrsmi	r1, pc, r0
    20e4:	00002036 	andeq	r2, r0, r6, lsr r0
    20e8:	00000001 	andeq	r0, r0, r1
    20ec:	001ffc40 	andseq	pc, pc, r0, asr #24
    20f0:	0001ac00 	andeq	sl, r1, r0, lsl #24
    20f4:	00001800 	andeq	r1, r0, r0, lsl #16
    20f8:	560a0100 	strpl	r0, [sl], -r0, lsl #2
    20fc:	41000021 	tstmi	r0, r1, lsr #32
    2100:	00002013 	andeq	r2, r0, r3, lsl r0
    2104:	200a4200 	andcs	r4, sl, r0, lsl #4
    2108:	03060000 	movweq	r0, #24576	; 0x6000
    210c:	1000015c 	andne	r0, r0, ip, asr r1
    2110:	1fd4439f 	svcne	0x00d4439f
    2114:	01ac0000 			; <UNDEFINED> instruction: 0x01ac0000
    2118:	00180000 	andseq	r0, r8, r0
    211c:	5e030000 	cdppl	0, 0, cr0, cr3, cr0, {0}
    2120:	001feb41 	andseq	lr, pc, r1, asr #22
    2124:	e2420000 	sub	r0, r2, #0
    2128:	0600001f 			; <UNDEFINED> instruction: 0x0600001f
    212c:	00015c03 	andeq	r5, r1, r3, lsl #24
    2130:	1f439f10 	svcne	0x00439f10
    2134:	ac000020 	stcge	0, cr0, [r0], {32}
    2138:	18000001 	stmdane	r0, {r0}
    213c:	03000000 	movweq	r0, #0
    2140:	202b4243 	eorcs	r4, fp, r3, asr #4
    2144:	03060000 	movweq	r0, #24576	; 0x6000
    2148:	1000015c 	andne	r0, r0, ip, asr r1
    214c:	2036419f 	mlascs	r6, pc, r1, r4	; <UNPREDICTABLE>
    2150:	00000000 	andeq	r0, r0, r0
    2154:	ac440000 	marge	acc0, r0, r4
    2158:	3e000001 	cdpcc	0, 0, cr0, cr0, cr1, {0}
    215c:	44000022 	strmi	r0, [r0], #-34	; 0x22
    2160:	000001b8 			; <UNDEFINED> instruction: 0x000001b8
    2164:	0000223e 	andeq	r2, r0, lr, lsr r2
    2168:	1e353900 	cdpne	9, 3, cr3, cr5, cr0, {0}
    216c:	77020000 	strvc	r0, [r2, -r0]
    2170:	8c000021 	stchi	0, cr0, [r0], {33}	; 0x21
    2174:	3a000021 	bcc	2200 <__sflush_r+0x60>
    2178:	0000068c 	andeq	r0, r0, ip, lsl #13
    217c:	00001ff7 	strdeq	r1, [r0], -r7
    2180:	6e69703d 	mcrvs	0, 3, r7, cr9, cr13, {1}
    2184:	30300300 	eorscc	r0, r0, r0, lsl #6
    2188:	00000009 	andeq	r0, r0, r9
    218c:	00038b45 	andeq	r8, r3, r5, asr #22
    2190:	0001c400 	andeq	ip, r1, r0, lsl #8
    2194:	00002400 	andeq	r2, r0, r0, lsl #8
    2198:	1c9c0100 	ldfnes	f0, [ip], {0}
    219c:	43000022 	movwmi	r0, #34	; 0x22
    21a0:	00002048 	andeq	r2, r0, r8, asr #32
    21a4:	000001c6 	andeq	r0, r0, r6, asr #3
    21a8:	00000030 	andeq	r0, r0, r0, lsr r0
    21ac:	52410d01 	subpl	r0, r1, #1, 26	; 0x40
    21b0:	01000020 	tsteq	r0, r0, lsr #32
    21b4:	00205d46 	eoreq	r5, r0, r6, asr #26
    21b8:	43ffff00 	mvnsmi	pc, #0, 30
    21bc:	00002169 	andeq	r2, r0, r9, ror #2
    21c0:	000001c6 	andeq	r0, r0, r6, asr #3
    21c4:	00000030 	andeq	r0, r0, r0, lsr r0
    21c8:	80470401 	subhi	r0, r7, r1, lsl #8
    21cc:	32000021 	andcc	r0, r0, #33	; 0x21
    21d0:	422009c0 	eormi	r0, r0, #192, 18	; 0x300000
    21d4:	00002177 	andeq	r2, r0, r7, ror r1
    21d8:	015c0306 	cmpeq	ip, r6, lsl #6
    21dc:	489f1000 	ldmmi	pc, {ip}	; <UNPREDICTABLE>
    21e0:	000001d2 	ldrdeq	r0, [r0], -r2
    21e4:	0000224f 	andeq	r2, r0, pc, asr #4
    21e8:	000021fd 	strdeq	r2, [r0], -sp
    21ec:	01520149 	cmpeq	r2, r9, asr #2
    21f0:	51014948 	tstpl	r1, r8, asr #18
    21f4:	01493001 	cmpeq	r9, r1
    21f8:	00740250 	rsbseq	r0, r4, r0, asr r2
    21fc:	01de4a00 	bicseq	r4, lr, r0, lsl #20
    2200:	226c0000 	rsbcs	r0, ip, #0
    2204:	01490000 	mrseq	r0, (UNDEF: 73)
    2208:	320c0551 	andcc	r0, ip, #339738624	; 0x14400000
    220c:	492009c0 	stmdbmi	r0!, {r6, r7, r8, fp}
    2210:	03055001 	movweq	r5, #20481	; 0x5001
    2214:	1000015c 	andne	r0, r0, ip, asr r1
    2218:	00000000 	andeq	r0, r0, r0
    221c:	000b894b 	andeq	r8, fp, fp, asr #18
    2220:	06161600 	ldreq	r1, [r6], -r0, lsl #12
    2224:	00002228 	andeq	r2, r0, r8, lsr #4
    2228:	00008105 	andeq	r8, r0, r5, lsl #2
    222c:	039a4c00 	orrseq	r4, sl, #0, 24
    2230:	04010000 	streq	r0, [r1], #-0
    2234:	00001e1c 	andeq	r1, r0, ip, lsl lr
    2238:	015c0305 	cmpeq	ip, r5, lsl #6
    223c:	ad281000 	stcge	0, cr1, [r8, #-0]
    2240:	17000003 	strne	r0, [r0, -r3]
    2244:	00224f30 	eoreq	r4, r2, r0, lsr pc
    2248:	1e031800 	cdpne	8, 0, cr1, cr3, cr0, {0}
    224c:	4d000000 	stcmi	0, cr0, [r0, #-0]
    2250:	00000701 	andeq	r0, r0, r1, lsl #14
    2254:	00000a43 	andeq	r0, r0, r3, asr #20
    2258:	0000226c 	andeq	r2, r0, ip, ror #4
    225c:	000a4318 	andeq	r4, sl, r8, lsl r3
    2260:	00731800 	rsbseq	r1, r3, r0, lsl #16
    2264:	97180000 	ldrls	r0, [r8, -r0]
    2268:	00000000 	andeq	r0, r0, r0
    226c:	0006a04e 	andeq	sl, r6, lr, asr #32
    2270:	18311900 	ldmdane	r1!, {r8, fp, ip}
    2274:	00002042 	andeq	r2, r0, r2, asr #32
    2278:	00093018 	andeq	r3, r9, r8, lsl r0
    227c:	Address 0x000000000000227c is out of bounds.


Disassembly of section .debug_abbrev:

00000000 <.debug_abbrev>:
   0:	25011101 	strcs	r1, [r1, #-257]	; 0x101
   4:	030b130e 	movweq	r1, #45838	; 0xb30e
   8:	550e1b0e 	strpl	r1, [lr, #-2830]	; 0xb0e
   c:	10011117 	andne	r1, r1, r7, lsl r1
  10:	02000017 	andeq	r0, r0, #23
  14:	0b0b0024 	bleq	2c00ac <__etext+0x2bd6ec>
  18:	0e030b3e 	vmoveq.16	d3[0], r0
  1c:	16030000 	strne	r0, [r3], -r0
  20:	3a0e0300 	bcc	380c28 <__etext+0x37e268>
  24:	490b3b0b 	stmdbmi	fp, {r0, r1, r3, r8, r9, fp, ip, sp}
  28:	04000013 	streq	r0, [r0], #-19
  2c:	0b0b0024 	bleq	2c00c4 <__etext+0x2bd704>
  30:	08030b3e 	stmdaeq	r3, {r1, r2, r3, r4, r5, r8, r9, fp}
  34:	35050000 	strcc	r0, [r5, #-0]
  38:	00134900 	andseq	r4, r3, r0, lsl #18
  3c:	01010600 	tsteq	r1, r0, lsl #12
  40:	13011349 	movwne	r1, #4937	; 0x1349
  44:	21070000 	mrscs	r0, (UNDEF: 7)
  48:	2f134900 	svccs	0x00134900
  4c:	0800000b 	stmdaeq	r0, {r0, r1, r3}
  50:	0b0b0104 	bleq	2c0468 <__etext+0x2bdaa8>
  54:	0b3b0b3a 	bleq	ec2d44 <__etext+0xec0384>
  58:	13010e6e 	movwne	r0, #7790	; 0x1e6e
  5c:	28090000 	stmdacs	r9, {}	; <UNPREDICTABLE>
  60:	1c0e0300 	stcne	3, cr0, [lr], {-0}
  64:	0a00000d 	beq	a0 <__isr_vector+0xa0>
  68:	08030028 	stmdaeq	r3, {r3, r5}
  6c:	00000d1c 	andeq	r0, r0, ip, lsl sp
  70:	0b01130b 	bleq	44ca4 <__etext+0x422e4>
  74:	3b0b3a0b 	blcc	2ce8a8 <__etext+0x2cbee8>
  78:	010e6e0b 	tsteq	lr, fp, lsl #28
  7c:	0c000013 	stceq	0, cr0, [r0], {19}
  80:	0803000d 	stmdaeq	r3, {r0, r2, r3}
  84:	0b3b0b3a 	bleq	ec2d74 <__etext+0xec03b4>
  88:	0b381349 	bleq	e04db4 <__etext+0xe023f4>
  8c:	0d0d0000 	stceq	0, cr0, [sp, #-0]
  90:	3a0e0300 	bcc	380c98 <__etext+0x37e2d8>
  94:	490b3b0b 	stmdbmi	fp, {r0, r1, r3, r8, r9, fp, ip, sp}
  98:	000b3813 	andeq	r3, fp, r3, lsl r8
  9c:	000f0e00 	andeq	r0, pc, r0, lsl #28
  a0:	13490b0b 	movtne	r0, #39691	; 0x9b0b
  a4:	160f0000 	strne	r0, [pc], -r0
  a8:	3a0e0300 	bcc	380cb0 <__etext+0x37e2f0>
  ac:	49053b0b 	stmdbmi	r5, {r0, r1, r3, r8, r9, fp, ip, sp}
  b0:	10000013 	andne	r0, r0, r3, lsl r0
  b4:	0b0b0117 	bleq	2c0518 <__etext+0x2bdb58>
  b8:	0b3b0b3a 	bleq	ec2da8 <__etext+0xec03e8>
  bc:	00001301 	andeq	r1, r0, r1, lsl #6
  c0:	03000d11 	movweq	r0, #3345	; 0xd11
  c4:	3b0b3a0e 	blcc	2ce904 <__etext+0x2cbf44>
  c8:	0013490b 	andseq	r4, r3, fp, lsl #18
  cc:	000f1200 	andeq	r1, pc, r0, lsl #4
  d0:	00000b0b 	andeq	r0, r0, fp, lsl #22
  d4:	03011313 	movweq	r1, #4883	; 0x1313
  d8:	3a0b0b0e 	bcc	2c2d18 <__etext+0x2c0358>
  dc:	010b3b0b 	tsteq	fp, fp, lsl #22
  e0:	14000013 	strne	r0, [r0], #-19
  e4:	0e030113 	mcreq	1, 0, r0, cr3, cr3, {0}
  e8:	0b3a050b 	bleq	e8151c <__etext+0xe7eb5c>
  ec:	13010b3b 	movwne	r0, #6971	; 0x1b3b
  f0:	0d150000 	ldceq	0, cr0, [r5, #-0]
  f4:	3a0e0300 	bcc	380cfc <__etext+0x37e33c>
  f8:	490b3b0b 	stmdbmi	fp, {r0, r1, r3, r8, r9, fp, ip, sp}
  fc:	00053813 	andeq	r3, r5, r3, lsl r8
 100:	00151600 	andseq	r1, r5, r0, lsl #12
 104:	15170000 	ldrne	r0, [r7, #-0]
 108:	01134901 	tsteq	r3, r1, lsl #18
 10c:	18000013 	stmdane	r0, {r0, r1, r4}
 110:	13490005 	movtne	r0, #36869	; 0x9005
 114:	13190000 	tstne	r9, #0
 118:	0b0e0301 	bleq	380d24 <__etext+0x37e364>
 11c:	3b0b3a05 	blcc	2ce938 <__etext+0x2cbf78>
 120:	00130105 	andseq	r0, r3, r5, lsl #2
 124:	01171a00 	tsteq	r7, r0, lsl #20
 128:	0b3a0b0b 	bleq	e82d5c <__etext+0xe8039c>
 12c:	1301053b 	movwne	r0, #5435	; 0x153b
 130:	131b0000 	tstne	fp, #0
 134:	3a0b0b01 	bcc	2c2d40 <__etext+0x2c0380>
 138:	01053b0b 	tsteq	r5, fp, lsl #22
 13c:	1c000013 	stcne	0, cr0, [r0], {19}
 140:	0e03000d 	cdpeq	0, 0, cr0, cr3, cr13, {0}
 144:	053b0b3a 	ldreq	r0, [fp, #-2874]!	; 0xb3a
 148:	0b381349 	bleq	e04e74 <__etext+0xe024b4>
 14c:	0d1d0000 	ldceq	0, cr0, [sp, #-0]
 150:	3a0e0300 	bcc	380d58 <__etext+0x37e398>
 154:	49053b0b 	stmdbmi	r5, {r0, r1, r3, r8, r9, fp, ip, sp}
 158:	1e000013 	mcrne	0, 0, r0, cr0, cr3, {0}
 15c:	0e03000d 	cdpeq	0, 0, cr0, cr3, cr13, {0}
 160:	053b0b3a 	ldreq	r0, [fp, #-2874]!	; 0xb3a
 164:	05381349 	ldreq	r1, [r8, #-841]!	; 0x349
 168:	261f0000 	ldrcs	r0, [pc], -r0
 16c:	00134900 	andseq	r4, r3, r0, lsl #18
 170:	01132000 	tsteq	r3, r0
 174:	0b0b0e03 	bleq	2c3988 <__etext+0x2c0fc8>
 178:	053b0b3a 	ldreq	r0, [fp, #-2874]!	; 0xb3a
 17c:	00001301 	andeq	r1, r0, r1, lsl #6
 180:	01011521 	tsteq	r1, r1, lsr #10
 184:	22000013 	andcs	r0, r0, #19
 188:	00000026 	andeq	r0, r0, r6, lsr #32
 18c:	03013923 	movweq	r3, #6435	; 0x1923
 190:	3b0b3a08 	blcc	2ce9b8 <__etext+0x2cbff8>
 194:	0013010b 	andseq	r0, r3, fp, lsl #2
 198:	00082400 	andeq	r2, r8, r0, lsl #8
 19c:	0b3b0b3a 	bleq	ec2e8c <__etext+0xec04cc>
 1a0:	00001318 	andeq	r1, r0, r8, lsl r3
 1a4:	3f002e25 	svccc	0x00002e25
 1a8:	3a0e0319 	bcc	380e14 <__etext+0x37e454>
 1ac:	3c0b3b0b 	stccc	11, cr3, [fp], {11}
 1b0:	26000019 			; <UNDEFINED> instruction: 0x26000019
 1b4:	193f012e 	ldmdbne	pc!, {r1, r2, r3, r5, r8}	; <UNPREDICTABLE>
 1b8:	0b3a0803 	bleq	e821cc <__etext+0xe7f80c>
 1bc:	13490b3b 	movtne	r0, #39739	; 0x9b3b
 1c0:	1301193c 	movwne	r1, #6460	; 0x193c
 1c4:	2e270000 	cdpcs	0, 2, cr0, cr7, cr0, {0}
 1c8:	03193f01 	tsteq	r9, #1, 30
 1cc:	3b0b3a0e 	blcc	2cea0c <__etext+0x2cc04c>
 1d0:	3c13490b 	ldccc	9, cr4, [r3], {11}
 1d4:	00130119 	andseq	r0, r3, r9, lsl r1
 1d8:	012e2800 	teqeq	lr, r0, lsl #16
 1dc:	0e03193f 	mcreq	9, 0, r1, cr3, cr15, {1}
 1e0:	0b3b0b3a 	bleq	ec2ed0 <__etext+0xec0510>
 1e4:	1301193c 	movwne	r1, #6460	; 0x193c
 1e8:	2e290000 	cdpcs	0, 2, cr0, cr9, cr0, {0}
 1ec:	03193f00 	tsteq	r9, #0, 30
 1f0:	3b0b3a0e 	blcc	2cea30 <__etext+0x2cc070>
 1f4:	3c13490b 	ldccc	9, cr4, [r3], {11}
 1f8:	2a000019 	bcs	264 <SysTick_Handler>
 1fc:	0e03000d 	cdpeq	0, 0, cr0, cr3, cr13, {0}
 200:	0b381349 	bleq	e04f2c <__etext+0xe0256c>
 204:	00001934 	andeq	r1, r0, r4, lsr r9
 208:	0000182b 	andeq	r1, r0, fp, lsr #16
 20c:	01392c00 	teqeq	r9, r0, lsl #24
 210:	0b3a0e03 	bleq	e83a24 <__etext+0xe81064>
 214:	13010b3b 	movwne	r0, #6971	; 0x1b3b
 218:	022d0000 	eoreq	r0, sp, #0
 21c:	0b0e0301 	bleq	380e28 <__etext+0x37e468>
 220:	3b0b3a0b 	blcc	2cea54 <__etext+0x2cc094>
 224:	0013010b 	andseq	r0, r3, fp, lsl #2
 228:	000d2e00 	andeq	r2, sp, r0, lsl #28
 22c:	0b3a0e03 	bleq	e83a40 <__etext+0xe81080>
 230:	13490b3b 	movtne	r0, #39739	; 0x9b3b
 234:	0b320b38 	bleq	c82f1c <__etext+0xc8055c>
 238:	2e2f0000 	cdpcs	0, 2, cr0, cr15, cr0, {0}
 23c:	03193f01 	tsteq	r9, #1, 30
 240:	3b0b3a0e 	blcc	2cea80 <__etext+0x2cc0c0>
 244:	3213490b 	andscc	r4, r3, #180224	; 0x2c000
 248:	64193c0b 	ldrvs	r3, [r9], #-3083	; 0xc0b
 24c:	00130113 	andseq	r0, r3, r3, lsl r1
 250:	00053000 	andeq	r3, r5, r0
 254:	19341349 	ldmdbne	r4!, {r0, r3, r6, r8, r9, ip}
 258:	2e310000 	cdpcs	0, 3, cr0, cr1, cr0, {0}
 25c:	03193f01 	tsteq	r9, #1, 30
 260:	3b0b3a0e 	blcc	2ceaa0 <__etext+0x2cc0e0>
 264:	320e6e0b 	andcc	r6, lr, #11, 28	; 0xb0
 268:	64193c0b 	ldrvs	r3, [r9], #-3083	; 0xc0b
 26c:	00130113 	andseq	r0, r3, r3, lsl r1
 270:	012e3200 	teqeq	lr, r0, lsl #4
 274:	0e03193f 	mcreq	9, 0, r1, cr3, cr15, {1}
 278:	0b3b0b3a 	bleq	ec2f68 <__etext+0xec05a8>
 27c:	13490e6e 	movtne	r0, #40558	; 0x9e6e
 280:	193c0b32 	ldmdbne	ip!, {r1, r4, r5, r8, r9, fp}
 284:	13011364 	movwne	r1, #4964	; 0x1364
 288:	2e330000 	cdpcs	0, 3, cr0, cr3, cr0, {0}
 28c:	03193f01 	tsteq	r9, #1, 30
 290:	3b0b3a0e 	blcc	2cead0 <__etext+0x2cc110>
 294:	490e6e0b 	stmdbmi	lr, {r0, r1, r3, r9, sl, fp, sp, lr}
 298:	3c0b3213 	sfmcc	f3, 4, [fp], {19}
 29c:	00136419 	andseq	r6, r3, r9, lsl r4
 2a0:	01023400 	tsteq	r2, r0, lsl #8
 2a4:	193c0803 	ldmdbne	ip!, {r0, r1, fp}
 2a8:	04350000 	ldrteq	r0, [r5], #-0
 2ac:	0b0e0301 	bleq	380eb8 <__etext+0x37e4f8>
 2b0:	3b0b3a0b 	blcc	2ceae4 <__etext+0x2cc124>
 2b4:	000b320b 	andeq	r3, fp, fp, lsl #4
 2b8:	00103600 	andseq	r3, r0, r0, lsl #12
 2bc:	13490b0b 	movtne	r0, #39691	; 0x9b0b
 2c0:	04370000 	ldrteq	r0, [r7], #-0
 2c4:	0b0e0301 	bleq	380ed0 <__etext+0x37e510>
 2c8:	3b0b3a0b 	blcc	2ceafc <__etext+0x2cc13c>
 2cc:	0013010b 	andseq	r0, r3, fp, lsl #2
 2d0:	003a3800 	eorseq	r3, sl, r0, lsl #16
 2d4:	0b3b0b3a 	bleq	ec2fc4 <__etext+0xec0604>
 2d8:	00001318 	andeq	r1, r0, r8, lsl r3
 2dc:	47012e39 	smladxmi	r1, r9, lr, r2
 2e0:	640b2013 	strvs	r2, [fp], #-19
 2e4:	00130113 	andseq	r0, r3, r3, lsl r1
 2e8:	00053a00 	andeq	r3, r5, r0, lsl #20
 2ec:	13490e03 	movtne	r0, #40451	; 0x9e03
 2f0:	00001934 	andeq	r1, r0, r4, lsr r9
 2f4:	0300053b 	movweq	r0, #1339	; 0x53b
 2f8:	3b0b3a0e 	blcc	2ceb38 <__etext+0x2cc178>
 2fc:	0013490b 	andseq	r4, r3, fp, lsl #18
 300:	012e3c00 	teqeq	lr, r0, lsl #24
 304:	0b3a0e03 	bleq	e83b18 <__etext+0xe81158>
 308:	0b200b3b 	bleq	802ffc <__etext+0x80063c>
 30c:	00001301 	andeq	r1, r0, r1, lsl #6
 310:	0300053d 	movweq	r0, #1341	; 0x53d
 314:	3b0b3a08 	blcc	2ceb3c <__etext+0x2cc17c>
 318:	0013490b 	andseq	r4, r3, fp, lsl #18
 31c:	012e3e00 	teqeq	lr, r0, lsl #28
 320:	19340e03 	ldmdbne	r4!, {r0, r1, r9, sl, fp}
 324:	13010b20 	movwne	r0, #6944	; 0x1b20
 328:	2e3f0000 	cdpcs	0, 3, cr0, cr15, cr0, {0}
 32c:	03193f01 	tsteq	r9, #1, 30
 330:	3b0b3a0e 	blcc	2ceb70 <__etext+0x2cc1b0>
 334:	1113490b 	tstne	r3, fp, lsl #18
 338:	40061201 	andmi	r1, r6, r1, lsl #4
 33c:	19429718 	stmdbne	r2, {r3, r4, r8, r9, sl, ip, pc}^
 340:	00001301 	andeq	r1, r0, r1, lsl #6
 344:	31011d40 	tstcc	r1, r0, asr #26
 348:	55015213 	strpl	r5, [r1, #-531]	; 0x213
 34c:	590b5817 	stmdbpl	fp, {r0, r1, r2, r4, fp, ip, lr}
 350:	0013010b 	andseq	r0, r3, fp, lsl #2
 354:	00054100 	andeq	r4, r5, r0, lsl #2
 358:	0b1c1331 	bleq	705024 <__etext+0x702664>
 35c:	05420000 	strbeq	r0, [r2, #-0]
 360:	02133100 	andseq	r3, r3, #0, 2
 364:	43000018 	movwmi	r0, #24
 368:	1331011d 	teqne	r1, #1073741831	; 0x40000007
 36c:	17550152 			; <UNDEFINED> instruction: 0x17550152
 370:	0b590b58 	bleq	16430d8 <__etext+0x1640718>
 374:	89440000 	stmdbhi	r4, {}^	; <UNPREDICTABLE>
 378:	11000182 	smlabbne	r0, r2, r1, r0
 37c:	00133101 	andseq	r3, r3, r1, lsl #2
 380:	012e4500 	teqeq	lr, r0, lsl #10
 384:	19340e03 	ldmdbne	r4!, {r0, r1, r9, sl, fp}
 388:	06120111 			; <UNDEFINED> instruction: 0x06120111
 38c:	42971840 	addsmi	r1, r7, #64, 16	; 0x400000
 390:	00130119 	andseq	r0, r3, r9, lsl r1
 394:	00054600 	andeq	r4, r5, r0, lsl #12
 398:	051c1331 	ldreq	r1, [ip, #-817]	; 0x331
 39c:	05470000 	strbeq	r0, [r7, #-0]
 3a0:	1c133100 	ldfnes	f3, [r3], {-0}
 3a4:	48000006 	stmdami	r0, {r1, r2}
 3a8:	01018289 	smlabbeq	r1, r9, r2, r8
 3ac:	13310111 	teqne	r1, #1073741828	; 0x40000004
 3b0:	00001301 	andeq	r1, r0, r1, lsl #6
 3b4:	01828a49 	orreq	r8, r2, r9, asr #20
 3b8:	91180200 	tstls	r8, r0, lsl #4
 3bc:	00001842 	andeq	r1, r0, r2, asr #16
 3c0:	0182894a 	orreq	r8, r2, sl, asr #18
 3c4:	95011101 	strls	r1, [r1, #-257]	; 0x101
 3c8:	13311942 	teqne	r1, #1081344	; 0x108000
 3cc:	344b0000 	strbcc	r0, [fp], #-0
 3d0:	3a0e0300 	bcc	380fd8 <__etext+0x37e618>
 3d4:	49053b0b 	stmdbmi	r5, {r0, r1, r3, r8, r9, fp, ip, sp}
 3d8:	3c193f13 	ldccc	15, cr3, [r9], {19}
 3dc:	4c000019 	stcmi	0, cr0, [r0], {25}
 3e0:	0e030034 	mcreq	0, 0, r0, cr3, cr4, {1}
 3e4:	0b3b0b3a 	bleq	ec30d4 <__etext+0xec0714>
 3e8:	193f1349 	ldmdbne	pc!, {r0, r3, r6, r8, r9, ip}	; <UNPREDICTABLE>
 3ec:	00001802 	andeq	r1, r0, r2, lsl #16
 3f0:	3f012e4d 	svccc	0x00012e4d
 3f4:	490e0319 	stmdbmi	lr, {r0, r3, r4, r8, r9}
 3f8:	3c193413 	cfldrscc	mvf3, [r9], {19}
 3fc:	00130119 	andseq	r0, r3, r9, lsl r1
 400:	012e4e00 	teqeq	lr, r0, lsl #28
 404:	0e03193f 	mcreq	9, 0, r1, cr3, cr15, {1}
 408:	0b3b0b3a 	bleq	ec30f8 <__etext+0xec0738>
 40c:	0000193c 	andeq	r1, r0, ip, lsr r9
	...

Disassembly of section .debug_aranges:

00000000 <.debug_aranges>:
   0:	00000024 	andeq	r0, r0, r4, lsr #32
   4:	00000002 	andeq	r0, r0, r2
   8:	00040000 	andeq	r0, r4, r0
   c:	00000000 	andeq	r0, r0, r0
  10:	0000019c 	muleq	r0, ip, r1
  14:	00000028 	andeq	r0, r0, r8, lsr #32
  18:	000001c4 	andeq	r0, r0, r4, asr #3
  1c:	00000024 	andeq	r0, r0, r4, lsr #32
	...

Disassembly of section .debug_ranges:

00000000 <.debug_ranges>:
   0:	0000019e 	muleq	r0, lr, r1
   4:	000001a0 	andeq	r0, r0, r0, lsr #3
   8:	000001a2 	andeq	r0, r0, r2, lsr #3
   c:	000001a8 	andeq	r0, r0, r8, lsr #3
	...
  18:	000001ac 	andeq	r0, r0, ip, lsr #3
  1c:	000001b0 			; <UNDEFINED> instruction: 0x000001b0
  20:	000001b2 			; <UNDEFINED> instruction: 0x000001b2
  24:	000001b4 			; <UNDEFINED> instruction: 0x000001b4
	...
  30:	000001c6 	andeq	r0, r0, r6, asr #3
  34:	000001d4 	ldrdeq	r0, [r0], -r4
  38:	000001d8 	ldrdeq	r0, [r0], -r8
  3c:	000001e8 	andeq	r0, r0, r8, ror #3
	...
  48:	0000019c 	muleq	r0, ip, r1
  4c:	000001c4 	andeq	r0, r0, r4, asr #3
  50:	000001c4 	andeq	r0, r0, r4, asr #3
  54:	000001e8 	andeq	r0, r0, r8, ror #3
	...

Disassembly of section .debug_line:

00000000 <.debug_line>:
   0:	000003de 	ldrdeq	r0, [r0], -lr
   4:	035f0002 	cmpeq	pc, #2
   8:	01020000 	mrseq	r0, (UNDEF: 2)
   c:	000d0efb 	strdeq	r0, [sp], -fp
  10:	01010101 	tsteq	r1, r1, lsl #2
  14:	01000000 	mrseq	r0, (UNDEF: 0)
  18:	6d010000 	stcvs	0, cr0, [r1, #-0]
  1c:	2f646562 	svccs	0x00646562
  20:	47524154 			; <UNDEFINED> instruction: 0x47524154
  24:	4c5f5445 	cfldrdmi	mvd5, [pc], {69}	; 0x45
  28:	37314350 			; <UNDEFINED> instruction: 0x37314350
  2c:	542f3836 	strtpl	r3, [pc], #-2102	; 34 <__isr_vector+0x34>
  30:	45475241 	strbmi	r5, [r7, #-577]	; 0x241
  34:	584e5f54 	stmdapl	lr, {r2, r4, r6, r8, r9, sl, fp, ip, lr}^
  38:	41542f50 	cmpmi	r4, r0, asr pc
  3c:	54454752 	strbpl	r4, [r5], #-1874	; 0x752
  40:	43504c5f 	cmpmi	r0, #24320	; 0x5f00
  44:	58363731 	ldmdapl	r6!, {r0, r4, r5, r8, r9, sl, ip, sp}
  48:	65626d00 	strbvs	r6, [r2, #-3328]!	; 0xd00
  4c:	752f0064 	strvc	r0, [pc, #-100]!	; fffffff0 <Image$$RW_IRAM3$$Base+0xdff7fff0>
  50:	6c2f7273 	sfmvs	f7, 4, [pc], #-460	; fffffe8c <Image$$RW_IRAM3$$Base+0xdff7fe8c>
  54:	6c61636f 	stclvs	3, cr6, [r1], #-444	; 0xfffffe44
  58:	6c65432f 	stclvs	3, cr4, [r5], #-188	; 0xffffff44
  5c:	2f72616c 	svccs	0x0072616c
  60:	2d636367 	stclcs	3, cr6, [r3, #-412]!	; 0xfffffe64
  64:	2d6d7261 	sfmcs	f7, 2, [sp, #-388]!	; 0xfffffe7c
  68:	656e6f6e 	strbvs	r6, [lr, #-3950]!	; 0xf6e
  6c:	6261652d 	rsbvs	r6, r1, #188743680	; 0xb400000
  70:	39342d69 	ldmdbcc	r4!, {r0, r3, r5, r6, r8, sl, fp, sp}
  74:	3130322f 	teqcc	r0, pc, lsr #4
  78:	30323134 	eorscc	r3, r2, r4, lsr r1
  7c:	72612f33 	rsbvc	r2, r1, #51, 30	; 0xcc
  80:	6f6e2d6d 	svcvs	0x006e2d6d
  84:	652d656e 	strvs	r6, [sp, #-1390]!	; 0x56e
  88:	2f696261 	svccs	0x00696261
  8c:	6c636e69 	stclvs	14, cr6, [r3], #-420	; 0xfffffe5c
  90:	2f656475 	svccs	0x00656475
  94:	6863616d 	stmdavs	r3!, {r0, r2, r3, r5, r6, r8, sp, lr}^
  98:	00656e69 	rsbeq	r6, r5, r9, ror #28
  9c:	7273752f 	rsbsvc	r7, r3, #197132288	; 0xbc00000
  a0:	636f6c2f 	cmnvs	pc, #12032	; 0x2f00
  a4:	432f6c61 	teqmi	pc, #24832	; 0x6100
  a8:	616c6c65 	cmnvs	ip, r5, ror #24
  ac:	63672f72 	cmnvs	r7, #456	; 0x1c8
  b0:	72612d63 	rsbvc	r2, r1, #6336	; 0x18c0
  b4:	6f6e2d6d 	svcvs	0x006e2d6d
  b8:	652d656e 	strvs	r6, [sp, #-1390]!	; 0x56e
  bc:	2d696261 	sfmcs	f6, 2, [r9, #-388]!	; 0xfffffe7c
  c0:	322f3934 	eorcc	r3, pc, #52, 18	; 0xd0000
  c4:	31343130 	teqcc	r4, r0, lsr r1
  c8:	2f333032 	svccs	0x00333032
  cc:	2d6d7261 	sfmcs	f7, 2, [sp, #-388]!	; 0xfffffe7c
  d0:	656e6f6e 	strbvs	r6, [lr, #-3950]!	; 0xf6e
  d4:	6261652d 	rsbvs	r6, r1, #188743680	; 0xb400000
  d8:	6e692f69 	cdpvs	15, 6, cr2, cr9, cr9, {3}
  dc:	64756c63 	ldrbtvs	r6, [r5], #-3171	; 0xc63
  e0:	626d0065 	rsbvs	r0, sp, #101	; 0x65
  e4:	542f6465 	strtpl	r6, [pc], #-1125	; ec <__do_global_dtors_aux+0x20>
  e8:	45475241 	strbmi	r5, [r7, #-577]	; 0x241
  ec:	504c5f54 	subpl	r5, ip, r4, asr pc
  f0:	36373143 	ldrtcc	r3, [r7], -r3, asr #2
  f4:	41542f38 	cmpmi	r4, r8, lsr pc
  f8:	54454752 	strbpl	r4, [r5], #-1874	; 0x752
  fc:	50584e5f 	subspl	r4, r8, pc, asr lr
 100:	5241542f 	subpl	r5, r1, #788529152	; 0x2f000000
 104:	5f544547 	svcpl	0x00544547
 108:	3143504c 	cmpcc	r3, ip, asr #32
 10c:	2f583637 	svccs	0x00583637
 110:	47524154 			; <UNDEFINED> instruction: 0x47524154
 114:	4d5f5445 	cfldrdmi	mvd5, [pc, #-276]	; 8 <__isr_vector+0x8>
 118:	5f444542 	svcpl	0x00444542
 11c:	3143504c 	cmpcc	r3, ip, asr #32
 120:	00383637 	eorseq	r3, r8, r7, lsr r6
 124:	7273752f 	rsbsvc	r7, r3, #197132288	; 0xbc00000
 128:	636f6c2f 	cmnvs	pc, #12032	; 0x2f00
 12c:	432f6c61 	teqmi	pc, #24832	; 0x6100
 130:	616c6c65 	cmnvs	ip, r5, ror #24
 134:	63672f72 	cmnvs	r7, #456	; 0x1c8
 138:	72612d63 	rsbvc	r2, r1, #6336	; 0x18c0
 13c:	6f6e2d6d 	svcvs	0x006e2d6d
 140:	652d656e 	strvs	r6, [sp, #-1390]!	; 0x56e
 144:	2d696261 	sfmcs	f6, 2, [r9, #-388]!	; 0xfffffe7c
 148:	322f3934 	eorcc	r3, pc, #52, 18	; 0xd0000
 14c:	31343130 	teqcc	r4, r0, lsr r1
 150:	2f333032 	svccs	0x00333032
 154:	2f62696c 	svccs	0x0062696c
 158:	2f636367 	svccs	0x00636367
 15c:	2d6d7261 	sfmcs	f7, 2, [sp, #-388]!	; 0xfffffe7c
 160:	656e6f6e 	strbvs	r6, [lr, #-3950]!	; 0xf6e
 164:	6261652d 	rsbvs	r6, r1, #188743680	; 0xb400000
 168:	2e342f69 	cdpcs	15, 3, cr2, cr4, cr9, {3}
 16c:	2f332e39 	svccs	0x00332e39
 170:	6c636e69 	stclvs	14, cr6, [r3], #-420	; 0xfffffe5c
 174:	00656475 	rsbeq	r6, r5, r5, ror r4
 178:	7273752f 	rsbsvc	r7, r3, #197132288	; 0xbc00000
 17c:	636f6c2f 	cmnvs	pc, #12032	; 0x2f00
 180:	432f6c61 	teqmi	pc, #24832	; 0x6100
 184:	616c6c65 	cmnvs	ip, r5, ror #24
 188:	63672f72 	cmnvs	r7, #456	; 0x1c8
 18c:	72612d63 	rsbvc	r2, r1, #6336	; 0x18c0
 190:	6f6e2d6d 	svcvs	0x006e2d6d
 194:	652d656e 	strvs	r6, [sp, #-1390]!	; 0x56e
 198:	2d696261 	sfmcs	f6, 2, [r9, #-388]!	; 0xfffffe7c
 19c:	322f3934 	eorcc	r3, pc, #52, 18	; 0xd0000
 1a0:	31343130 	teqcc	r4, r0, lsr r1
 1a4:	2f333032 	svccs	0x00333032
 1a8:	2d6d7261 	sfmcs	f7, 2, [sp, #-388]!	; 0xfffffe7c
 1ac:	656e6f6e 	strbvs	r6, [lr, #-3950]!	; 0xf6e
 1b0:	6261652d 	rsbvs	r6, r1, #188743680	; 0xb400000
 1b4:	6e692f69 	cdpvs	15, 6, cr2, cr9, cr9, {3}
 1b8:	64756c63 	ldrbtvs	r6, [r5], #-3171	; 0xc63
 1bc:	79732f65 	ldmdbvc	r3!, {r0, r2, r5, r6, r8, r9, sl, fp, sp}^
 1c0:	752f0073 	strvc	r0, [pc, #-115]!	; 155 <_mainCRTStartup+0x2d>
 1c4:	6c2f7273 	sfmvs	f7, 4, [pc], #-460	; 0 <__isr_vector>
 1c8:	6c61636f 	stclvs	3, cr6, [r1], #-444	; 0xfffffe44
 1cc:	6c65432f 	stclvs	3, cr4, [r5], #-188	; 0xffffff44
 1d0:	2f72616c 	svccs	0x0072616c
 1d4:	2d636367 	stclcs	3, cr6, [r3, #-412]!	; 0xfffffe64
 1d8:	2d6d7261 	sfmcs	f7, 2, [sp, #-388]!	; 0xfffffe7c
 1dc:	656e6f6e 	strbvs	r6, [lr, #-3950]!	; 0xf6e
 1e0:	6261652d 	rsbvs	r6, r1, #188743680	; 0xb400000
 1e4:	39342d69 	ldmdbcc	r4!, {r0, r3, r5, r6, r8, sl, fp, sp}
 1e8:	3130322f 	teqcc	r0, pc, lsr #4
 1ec:	30323134 	eorscc	r3, r2, r4, lsr r1
 1f0:	72612f33 	rsbvc	r2, r1, #51, 30	; 0xcc
 1f4:	6f6e2d6d 	svcvs	0x006e2d6d
 1f8:	652d656e 	strvs	r6, [sp, #-1390]!	; 0x56e
 1fc:	2f696261 	svccs	0x00696261
 200:	6c636e69 	stclvs	14, cr6, [r3], #-420	; 0xfffffe5c
 204:	2f656475 	svccs	0x00656475
 208:	2f2b2b63 	svccs	0x002b2b63
 20c:	2e392e34 	mrccs	14, 1, r2, cr9, cr4, {1}
 210:	626d0033 	rsbvs	r0, sp, #51	; 0x33
 214:	542f6465 	strtpl	r6, [pc], #-1125	; 21c <NVIC_SetVector+0x34>
 218:	45475241 	strbmi	r5, [r7, #-577]	; 0x241
 21c:	504c5f54 	subpl	r5, ip, r4, asr pc
 220:	36373143 	ldrtcc	r3, [r7], -r3, asr #2
 224:	6d000038 	stcvs	0, cr0, [r0, #-224]	; 0xffffff20
 228:	2e6e6961 	cdpcs	9, 6, cr6, cr14, cr1, {3}
 22c:	00707063 	rsbseq	r7, r0, r3, rrx
 230:	67000000 	strvs	r0, [r0, -r0]
 234:	5f6f6970 	svcpl	0x006f6970
 238:	656a626f 	strbvs	r6, [sl, #-623]!	; 0x26f
 23c:	682e7463 	stmdavs	lr!, {r0, r1, r5, r6, sl, ip, sp, lr}
 240:	00000100 	andeq	r0, r0, r0, lsl #2
 244:	69676944 	stmdbvs	r7!, {r2, r6, r8, fp, sp, lr}^
 248:	4f6c6174 	svcmi	0x006c6174
 24c:	682e7475 	stmdavs	lr!, {r0, r2, r4, r5, r6, sl, ip, sp, lr}
 250:	00000200 	andeq	r0, r0, r0, lsl #4
 254:	6665645f 			; <UNDEFINED> instruction: 0x6665645f
 258:	746c7561 	strbtvc	r7, [ip], #-1377	; 0x561
 25c:	7079745f 	rsbsvc	r7, r9, pc, asr r4
 260:	682e7365 	stmdavs	lr!, {r0, r2, r5, r6, r8, r9, ip, sp, lr}
 264:	00000300 	andeq	r0, r0, r0, lsl #6
 268:	69647473 	stmdbvs	r4!, {r0, r1, r4, r5, r6, sl, ip, sp, lr}^
 26c:	682e746e 	stmdavs	lr!, {r1, r2, r3, r5, r6, sl, ip, sp, lr}
 270:	00000400 	andeq	r0, r0, r0, lsl #8
 274:	4e6e6950 	mcrmi	9, 3, r6, cr14, cr0, {2}
 278:	73656d61 	cmnvc	r5, #6208	; 0x1840
 27c:	0500682e 	streq	r6, [r0, #-2094]	; 0x82e
 280:	74730000 	ldrbtvc	r0, [r3], #-0
 284:	66656464 	strbtvs	r6, [r5], -r4, ror #8
 288:	0600682e 	streq	r6, [r0], -lr, lsr #16
 28c:	6f6c0000 	svcvs	0x006c0000
 290:	682e6b63 	stmdavs	lr!, {r0, r1, r5, r6, r8, r9, fp, sp, lr}
 294:	00000700 	andeq	r0, r0, r0, lsl #14
 298:	7079745f 	rsbsvc	r7, r9, pc, asr r4
 29c:	682e7365 	stmdavs	lr!, {r0, r2, r5, r6, r8, r9, ip, sp, lr}
 2a0:	00000700 	andeq	r0, r0, r0, lsl #14
 2a4:	6e656572 	mcrvs	5, 3, r6, cr5, cr2, {3}
 2a8:	00682e74 	rsbeq	r2, r8, r4, ror lr
 2ac:	73000007 	movwvc	r0, #7
 2b0:	696c6474 	stmdbvs	ip!, {r2, r4, r5, r6, sl, sp, lr}^
 2b4:	00682e62 	rsbeq	r2, r8, r2, ror #28
 2b8:	63000004 	movwvs	r0, #4
 2bc:	6c647473 	cfstrdvs	mvd7, [r4], #-460	; 0xfffffe34
 2c0:	08006269 	stmdaeq	r0, {r0, r3, r5, r6, r9, sp, lr}
 2c4:	73630000 	cmnvc	r3, #0
 2c8:	6f696474 	svcvs	0x00696474
 2cc:	00000800 	andeq	r0, r0, r0, lsl #16
 2d0:	72747363 	rsbsvc	r7, r4, #-1946157055	; 0x8c000001
 2d4:	00676e69 	rsbeq	r6, r7, r9, ror #28
 2d8:	73000008 	movwvc	r0, #8
 2dc:	72616474 	rsbvc	r6, r1, #116, 8	; 0x74000000
 2e0:	00682e67 	rsbeq	r2, r8, r7, ror #28
 2e4:	3c000006 	stccc	0, cr0, [r0], {6}
 2e8:	6c697562 	cfstr64vs	mvdx7, [r9], #-392	; 0xfffffe78
 2ec:	6e692d74 	mcrvs	13, 3, r2, cr9, cr4, {3}
 2f0:	0000003e 	andeq	r0, r0, lr, lsr r0
 2f4:	64747300 	ldrbtvs	r7, [r4], #-768	; 0x300
 2f8:	682e6f69 	stmdavs	lr!, {r0, r3, r5, r6, r8, r9, sl, fp, sp, lr}
 2fc:	00000400 	andeq	r0, r0, r0, lsl #8
 300:	69727473 	ldmdbvs	r2!, {r0, r1, r4, r5, r6, sl, ip, sp, lr}^
 304:	682e676e 	stmdavs	lr!, {r1, r2, r3, r5, r6, r8, r9, sl, sp, lr}
 308:	00000400 	andeq	r0, r0, r0, lsl #8
 30c:	2e4e4143 	dvfcsem	f4, f6, f3
 310:	00020068 	andeq	r0, r2, r8, rrx
 314:	6e616300 	cdpvs	3, 6, cr6, cr1, cr0, {0}
 318:	6c65685f 	stclvs	8, cr6, [r5], #-380	; 0xfffffe84
 31c:	2e726570 	mrccs	5, 3, r6, cr2, cr0, {3}
 320:	00020068 	andeq	r0, r2, r8, rrx
 324:	65626d00 	strbvs	r6, [r2, #-3328]!	; 0xd00
 328:	00682e64 	rsbeq	r2, r8, r4, ror #28
 32c:	63000002 	movwvs	r0, #2
 330:	5f65726f 	svcpl	0x0065726f
 334:	2e336d63 	cdpcs	13, 3, cr6, cr3, cr3, {3}
 338:	00090068 	andeq	r0, r9, r8, rrx
 33c:	69617700 	stmdbvs	r1!, {r8, r9, sl, ip, sp, lr}^
 340:	70615f74 	rsbvc	r5, r1, r4, ror pc
 344:	00682e69 	rsbeq	r2, r8, r9, ror #28
 348:	44000002 	strmi	r0, [r0], #-2
 34c:	74696769 	strbtvc	r6, [r9], #-1897	; 0x769
 350:	6e496c61 	cdpvs	12, 4, cr6, cr9, cr1, {3}
 354:	0200682e 	andeq	r6, r0, #3014656	; 0x2e0000
 358:	70670000 	rsbvc	r0, r7, r0
 35c:	615f6f69 	cmpvs	pc, r9, ror #30
 360:	682e6970 	stmdavs	lr!, {r4, r5, r6, r8, fp, sp, lr}
 364:	00000200 	andeq	r0, r0, r0, lsl #4
 368:	02050000 	andeq	r0, r5, #0
 36c:	0000019c 	muleq	r0, ip, r1
 370:	00020417 	andeq	r0, r2, r7, lsl r4
 374:	03010402 	movweq	r0, #5122	; 0x1402
 378:	01042020 	tsteq	r4, r0, lsr #32
 37c:	01040200 	mrseq	r0, R12_usr
 380:	04206303 	strteq	r6, [r0], #-771	; 0x303
 384:	04020002 	streq	r0, [r2], #-2
 388:	201d0301 	andscs	r0, sp, r1, lsl #6
 38c:	02000104 	andeq	r0, r0, #4, 2
 390:	63030104 	movwvs	r0, #12548	; 0x3104
 394:	0002043c 	andeq	r0, r2, ip, lsr r4
 398:	03010402 	movweq	r0, #5122	; 0x1402
 39c:	01042e1f 	tsteq	r4, pc, lsl lr
 3a0:	01040200 	mrseq	r0, R12_usr
 3a4:	042e6303 	strteq	r6, [lr], #-771	; 0x303
 3a8:	04020002 	streq	r0, [r2], #-2
 3ac:	201d0301 	andscs	r0, sp, r1, lsl #6
 3b0:	02000104 	andeq	r0, r0, #4, 2
 3b4:	63030104 	movwvs	r0, #12548	; 0x3104
 3b8:	04020020 	streq	r0, [r2], #-32
 3bc:	06022901 	streq	r2, [r2], -r1, lsl #18
 3c0:	00010100 	andeq	r0, r1, r0, lsl #2
 3c4:	01c40205 	biceq	r0, r4, r5, lsl #4
 3c8:	0c030000 	stceq	0, cr0, [r3], {-0}
 3cc:	03030401 	movweq	r0, #13313	; 0x3401
 3d0:	04672023 	strbteq	r2, [r7], #-35	; 0x23
 3d4:	205c0301 	subscs	r0, ip, r1, lsl #6
 3d8:	24030304 	strcs	r0, [r3], #-772	; 0x304
 3dc:	0008022e 	andeq	r0, r8, lr, lsr #4
 3e0:	Address 0x00000000000003e0 is out of bounds.


Disassembly of section .debug_str:

00000000 <.debug_str>:
   0:	72497854 	subvc	r7, r9, #84, 16	; 0x540000
   4:	34500071 	ldrbcc	r0, [r0], #-113	; 0x71
   8:	0030315f 	eorseq	r3, r0, pc, asr r1
   c:	315f3450 	cmpcc	pc, r0, asr r4	; <UNPREDICTABLE>
  10:	34500031 	ldrbcc	r0, [r0], #-49	; 0x31
  14:	0032315f 	eorseq	r3, r2, pc, asr r1
  18:	315f3450 	cmpcc	pc, r0, asr r4	; <UNPREDICTABLE>
  1c:	34500033 	ldrbcc	r0, [r0], #-51	; 0x33
  20:	0034315f 	eorseq	r3, r4, pc, asr r1
  24:	315f3450 	cmpcc	pc, r0, asr r4	; <UNPREDICTABLE>
  28:	34500035 	ldrbcc	r0, [r0], #-53	; 0x35
  2c:	0036315f 	eorseq	r3, r6, pc, asr r1
  30:	315f3450 	cmpcc	pc, r0, asr r4	; <UNPREDICTABLE>
  34:	34500037 	ldrbcc	r0, [r0], #-55	; 0x37
  38:	0038315f 	eorseq	r3, r8, pc, asr r1
  3c:	315f3450 	cmpcc	pc, r0, asr r4	; <UNPREDICTABLE>
  40:	34500039 	ldrbcc	r0, [r0], #-57	; 0x39
  44:	0030325f 	eorseq	r3, r0, pc, asr r2
  48:	325f3450 	subscc	r3, pc, #80, 8	; 0x50000000
  4c:	34500031 	ldrbcc	r0, [r0], #-49	; 0x31
  50:	0032325f 	eorseq	r3, r2, pc, asr r2
  54:	325f3450 	subscc	r3, pc, #80, 8	; 0x50000000
  58:	34500033 	ldrbcc	r0, [r0], #-51	; 0x33
  5c:	0034325f 	eorseq	r3, r4, pc, asr r2
  60:	325f3450 	subscc	r3, pc, #80, 8	; 0x50000000
  64:	34500035 	ldrbcc	r0, [r0], #-53	; 0x35
  68:	0036325f 	eorseq	r3, r6, pc, asr r2
  6c:	325f3450 	subscc	r3, pc, #80, 8	; 0x50000000
  70:	34500037 	ldrbcc	r0, [r0], #-55	; 0x37
  74:	0038325f 	eorseq	r3, r8, pc, asr r2
  78:	325f3450 	subscc	r3, pc, #80, 8	; 0x50000000
  7c:	735f0039 	cmpvc	pc, #57	; 0x39
  80:	756f6474 	strbvc	r6, [pc, #-1140]!	; fffffc14 <Image$$RW_IRAM3$$Base+0xdff7fc14>
  84:	74730074 	ldrbtvc	r0, [r3], #-116	; 0x74
  88:	79706372 	ldmdbvc	r0!, {r1, r4, r5, r6, r8, r9, sp, lr}^
  8c:	626d5f00 	rsbvs	r5, sp, #0, 30
  90:	74617473 	strbtvc	r7, [r1], #-1139	; 0x473
  94:	34500065 	ldrbcc	r0, [r0], #-101	; 0x65
  98:	0030335f 	eorseq	r3, r0, pc, asr r3
  9c:	335f3450 	cmpcc	pc, #80, 8	; 0x50000000
  a0:	615f0031 	cmpvs	pc, r1, lsr r0	; <UNPREDICTABLE>
  a4:	69786574 	ldmdbvs	r8!, {r2, r4, r5, r6, r8, sl, sp, lr}^
  a8:	32500074 	subscc	r0, r0, #116	; 0x74
  ac:	0030315f 	eorseq	r3, r0, pc, asr r1
  b0:	315f3250 	cmpcc	pc, r0, asr r2	; <UNPREDICTABLE>
  b4:	32500031 	subscc	r0, r0, #49	; 0x31
  b8:	0032315f 	eorseq	r3, r2, pc, asr r1
  bc:	315f3250 	cmpcc	pc, r0, asr r2	; <UNPREDICTABLE>
  c0:	32500033 	subscc	r0, r0, #51	; 0x33
  c4:	0034315f 	eorseq	r3, r4, pc, asr r1
  c8:	315f3250 	cmpcc	pc, r0, asr r2	; <UNPREDICTABLE>
  cc:	32500035 	subscc	r0, r0, #53	; 0x35
  d0:	0036315f 	eorseq	r3, r6, pc, asr r1
  d4:	315f3250 	cmpcc	pc, r0, asr r2	; <UNPREDICTABLE>
  d8:	32500037 	subscc	r0, r0, #55	; 0x37
  dc:	0038315f 	eorseq	r3, r8, pc, asr r1
  e0:	315f3250 	cmpcc	pc, r0, asr r2	; <UNPREDICTABLE>
  e4:	77660039 			; <UNDEFINED> instruction: 0x77660039
  e8:	65746972 	ldrbvs	r6, [r4, #-2418]!	; 0x972
  ec:	5f305000 	svcpl	0x00305000
  f0:	30500030 	subscc	r0, r0, r0, lsr r0
  f4:	5000315f 	andpl	r3, r0, pc, asr r1
  f8:	00325f30 	eorseq	r5, r2, r0, lsr pc
  fc:	335f3050 	cmpcc	pc, #80	; 0x50
 100:	5f305000 	svcpl	0x00305000
 104:	30500034 	subscc	r0, r0, r4, lsr r0
 108:	5000355f 	andpl	r3, r0, pc, asr r5
 10c:	00365f30 	eorseq	r5, r6, r0, lsr pc
 110:	375f3050 			; <UNDEFINED> instruction: 0x375f3050
 114:	5f305000 	svcpl	0x00305000
 118:	30500038 	subscc	r0, r0, r8, lsr r0
 11c:	5f00395f 	svcpl	0x0000395f
 120:	5f6d745f 	svcpl	0x006d745f
 124:	006e6f6d 	rsbeq	r6, lr, sp, ror #30
 128:	746e665f 	strbtvc	r6, [lr], #-1631	; 0x65f
 12c:	73657079 	cmnvc	r5, #121	; 0x79
 130:	5f325000 	svcpl	0x00325000
 134:	50003032 	andpl	r3, r0, r2, lsr r0
 138:	31325f32 	teqcc	r2, r2, lsr pc
 13c:	5f325000 	svcpl	0x00325000
 140:	50003232 	andpl	r3, r0, r2, lsr r2
 144:	33325f32 	teqcc	r2, #50, 30	; 0xc8
 148:	5f325000 	svcpl	0x00325000
 14c:	50003432 	andpl	r3, r0, r2, lsr r4
 150:	35325f32 	ldrcc	r5, [r2, #-3890]!	; 0xf32
 154:	5f325000 	svcpl	0x00325000
 158:	50003632 	andpl	r3, r0, r2, lsr r6
 15c:	37325f32 			; <UNDEFINED> instruction: 0x37325f32
 160:	5f325000 	svcpl	0x00325000
 164:	50003832 	andpl	r3, r0, r2, lsr r8
 168:	39325f32 	ldmdbcc	r2!, {r1, r4, r5, r8, r9, sl, fp, ip, lr}
 16c:	73552f00 	cmpvc	r5, #0, 30
 170:	2f737265 	svccs	0x00737265
 174:	2f6c6f43 	svccs	0x006c6f43
 178:	6a6f7250 	bvs	1bdcac0 <__etext+0x1bda100>
 17c:	73746365 	cmnvc	r4, #-1811939327	; 0x94000001
 180:	65626d2f 	strbvs	r6, [r2, #-3375]!	; 0xd2f
 184:	74725f64 	ldrbtvc	r5, [r2], #-3940	; 0xf64
 188:	625f736f 	subsvs	r7, pc, #-1140850687	; 0xbc000001
 18c:	6b6e696c 	blvs	1b9a744 <__etext+0x1b97d84>
 190:	65660079 	strbvs	r0, [r6, #-121]!	; 0x79
 194:	6600666f 	strvs	r6, [r0], -pc, ror #12
 198:	63747570 	cmnvs	r4, #112, 10	; 0x1c000000
 19c:	6c665f00 	stclvs	15, cr5, [r6], #-0
 1a0:	00736761 	rsbseq	r6, r3, r1, ror #14
 1a4:	335f3250 	cmpcc	pc, #80, 4
 1a8:	32500030 	subscc	r0, r0, #48	; 0x30
 1ac:	0031335f 	eorseq	r3, r1, pc, asr r3
 1b0:	74757066 	ldrbtvc	r7, [r5], #-102	; 0x66
 1b4:	30500073 	subscc	r0, r0, r3, ror r0
 1b8:	0030315f 	eorseq	r3, r0, pc, asr r1
 1bc:	315f3050 	cmpcc	pc, r0, asr r0	; <UNPREDICTABLE>
 1c0:	30500031 	subscc	r0, r0, r1, lsr r0
 1c4:	0032315f 	eorseq	r3, r2, pc, asr r1
 1c8:	315f3050 	cmpcc	pc, r0, asr r0	; <UNPREDICTABLE>
 1cc:	30500033 	subscc	r0, r0, r3, lsr r0
 1d0:	0034315f 	eorseq	r3, r4, pc, asr r1
 1d4:	315f3050 	cmpcc	pc, r0, asr r0	; <UNPREDICTABLE>
 1d8:	30500035 	subscc	r0, r0, r5, lsr r0
 1dc:	0036315f 	eorseq	r3, r6, pc, asr r1
 1e0:	315f3050 	cmpcc	pc, r0, asr r0	; <UNPREDICTABLE>
 1e4:	30500037 	subscc	r0, r0, r7, lsr r0
 1e8:	0038315f 	eorseq	r3, r8, pc, asr r1
 1ec:	315f3050 	cmpcc	pc, r0, asr r0	; <UNPREDICTABLE>
 1f0:	656d0039 	strbvs	r0, [sp, #-57]!	; 0x39
 1f4:	706d636d 	rsbvc	r6, sp, sp, ror #6
 1f8:	76635f00 	strbtvc	r5, [r3], -r0, lsl #30
 1fc:	6e656c74 	mcrvs	12, 3, r6, cr5, cr4, {3}
 200:	69735f00 	ldmdbvs	r3!, {r8, r9, sl, fp, ip, lr}^
 204:	75665f67 	strbvc	r5, [r6, #-3943]!	; 0xf67
 208:	4300636e 	movwmi	r6, #878	; 0x36e
 20c:	65524e41 	ldrbvs	r4, [r2, #-3649]	; 0xe41
 210:	65746f6d 	ldrbvs	r6, [r4, #-3949]!	; 0xf6d
 214:	5f305000 	svcpl	0x00305000
 218:	50003032 	andpl	r3, r0, r2, lsr r0
 21c:	31325f30 	teqcc	r2, r0, lsr pc
 220:	5f305000 	svcpl	0x00305000
 224:	50003232 	andpl	r3, r0, r2, lsr r2
 228:	33325f30 	teqcc	r2, #48, 30	; 0xc0
 22c:	5f305000 	svcpl	0x00305000
 230:	50003432 	andpl	r3, r0, r2, lsr r4
 234:	35325f30 	ldrcc	r5, [r2, #-3888]!	; 0xf30
 238:	5f305000 	svcpl	0x00305000
 23c:	50003632 	andpl	r3, r0, r2, lsr r6
 240:	37325f30 			; <UNDEFINED> instruction: 0x37325f30
 244:	5f305000 	svcpl	0x00305000
 248:	50003832 	andpl	r3, r0, r2, lsr r8
 24c:	39325f30 	ldmdbcc	r2!, {r4, r5, r8, r9, sl, fp, ip, lr}
 250:	69503700 	ldmdbvs	r0, {r8, r9, sl, ip, sp}^
 254:	6d614e6e 	stclvs	14, cr4, [r1, #-440]!	; 0xfffffe48
 258:	74610065 	strbtvc	r0, [r1], #-101	; 0x65
 25c:	6100666f 	tstvs	r0, pc, ror #12
 260:	00696f74 	rsbeq	r6, r9, r4, ror pc
 264:	6c6f7461 	cfstrdvs	mvd7, [pc], #-388	; e8 <__do_global_dtors_aux+0x1c>
 268:	72747300 	rsbsvc	r7, r4, #0, 6
 26c:	6c6c6f63 	stclvs	15, cr6, [ip], #-396	; 0xfffffe74
 270:	5f305000 	svcpl	0x00305000
 274:	50003033 	andpl	r3, r0, r3, lsr r0
 278:	31335f30 	teqcc	r3, r0, lsr pc
 27c:	75635f00 	strbvc	r5, [r3, #-3840]!	; 0xf00
 280:	6e657272 	mcrvs	2, 3, r7, cr5, cr2, {3}
 284:	6f6c5f74 	svcvs	0x006c5f74
 288:	656c6163 	strbvs	r6, [ip, #-355]!	; 0x163
 28c:	72747300 	rsbsvc	r7, r4, #0, 6
 290:	72686372 	rsbvc	r6, r8, #-939524095	; 0xc8000001
 294:	73616d00 	cmnvc	r1, #0, 26
 298:	5f5f006b 	svcpl	0x005f006b
 29c:	454c4946 	strbmi	r4, [ip, #-2374]	; 0x946
 2a0:	6d656d00 	stclvs	13, cr6, [r5, #-0]
 2a4:	00797063 	rsbseq	r7, r9, r3, rrx
 2a8:	66626c5f 			; <UNDEFINED> instruction: 0x66626c5f
 2ac:	657a6973 	ldrbvs	r6, [sl, #-2419]!	; 0x973
 2b0:	646c3600 	strbtvs	r3, [ip], #-1536	; 0x600
 2b4:	745f7669 	ldrbvc	r7, [pc], #-1641	; 2bc <_write+0x10>
 2b8:	6f626100 	svcvs	0x00626100
 2bc:	5f007472 	svcpl	0x00007472
 2c0:	6d344e5a 	ldcvs	14, cr4, [r4, #-360]!	; 0xfffffe98
 2c4:	31646562 	cmncc	r4, r2, ror #10
 2c8:	67694430 			; <UNDEFINED> instruction: 0x67694430
 2cc:	6c617469 	cfstrdvs	mvd7, [r1], #-420	; 0xfffffe5c
 2d0:	6174754f 	cmnvs	r4, pc, asr #10
 2d4:	00694553 	rsbeq	r4, r9, r3, asr r5
 2d8:	305f3150 	subscc	r3, pc, r0, asr r1	; <UNPREDICTABLE>
 2dc:	5f315000 	svcpl	0x00315000
 2e0:	31500031 	cmpcc	r0, r1, lsr r0
 2e4:	5000325f 	andpl	r3, r0, pc, asr r2
 2e8:	00335f31 	eorseq	r5, r3, r1, lsr pc
 2ec:	345f3150 	ldrbcc	r3, [pc], #-336	; 2f4 <_write+0x48>
 2f0:	5f315000 	svcpl	0x00315000
 2f4:	31500035 	cmpcc	r0, r5, lsr r0
 2f8:	5000365f 	andpl	r3, r0, pc, asr r6
 2fc:	00375f31 	eorseq	r5, r7, r1, lsr pc
 300:	385f3150 	ldmdacc	pc, {r4, r6, r8, ip, sp}^	; <UNPREDICTABLE>
 304:	5f315000 	svcpl	0x00315000
 308:	63770039 	cmnvs	r7, #57	; 0x39
 30c:	626d6f74 	rsbvs	r6, sp, #116, 30	; 0x1d0
 310:	61645f00 	cmnvs	r4, r0, lsl #30
 314:	66006174 			; <UNDEFINED> instruction: 0x66006174
 318:	00656572 	rsbeq	r6, r5, r2, ror r5
 31c:	616e6572 	smcvs	58962	; 0xe652
 320:	5f00656d 	svcpl	0x0000656d
 324:	6e656572 	mcrvs	5, 3, r6, cr5, cr2, {3}
 328:	5f5f0074 	svcpl	0x005f0074
 32c:	5f006673 	svcpl	0x00006673
 330:	65736162 	ldrbvs	r6, [r3, #-354]!	; 0x162
 334:	695f5f00 	ldmdbvs	pc, {r8, r9, sl, fp, ip, lr}^	; <UNPREDICTABLE>
 338:	6974696e 	ldmdbvs	r4!, {r1, r2, r3, r5, r6, r8, fp, sp, lr}^
 33c:	7a696c61 	bvc	1a5b4c8 <__etext+0x1a58b08>
 340:	00705f65 	rsbseq	r5, r0, r5, ror #30
 344:	61657266 	cmnvs	r5, r6, ror #4
 348:	6d5f0064 	ldclvs	0, cr0, [pc, #-400]	; 1c0 <main+0x24>
 34c:	776f7462 	strbvc	r7, [pc, -r2, ror #8]!
 350:	74735f63 	ldrbtvc	r5, [r3], #-3939	; 0xf63
 354:	00657461 	rsbeq	r7, r5, r1, ror #8
 358:	74656766 	strbtvc	r6, [r5], #-1894	; 0x766
 35c:	67660063 	strbvs	r0, [r6, -r3, rrx]!
 360:	00737465 	rsbseq	r7, r3, r5, ror #8
 364:	6f657266 	svcvs	0x00657266
 368:	006e6570 	rsbeq	r6, lr, r0, ror r5
 36c:	6d745f5f 	ldclvs	15, cr5, [r4, #-380]!	; 0xfffffe84
 370:	745f5f00 	ldrbvc	r5, [pc], #-3840	; 378 <_lseek+0x8>
 374:	64795f6d 	ldrbtvs	r5, [r9], #-3949	; 0xf6d
 378:	42007961 	andmi	r7, r0, #1589248	; 0x184000
 37c:	71724965 	cmnvc	r2, r5, ror #18
 380:	65706f00 	ldrbvs	r6, [r0, #-3840]!	; 0xf00
 384:	6f746172 	svcvs	0x00746172
 388:	5f003d72 	svcpl	0x00003d72
 38c:	424f4c47 	submi	r4, pc, #18176	; 0x4700
 390:	5f5f4c41 	svcpl	0x005f4c41
 394:	5f627573 	svcpl	0x00627573
 398:	796d5f49 	stmdbvc	sp!, {r0, r3, r6, r8, r9, sl, fp, ip, lr}^
 39c:	0064656c 	rsbeq	r6, r4, ip, ror #10
 3a0:	756e755f 	strbvc	r7, [lr, #-1375]!	; 0x55f
 3a4:	5f646573 	svcpl	0x00646573
 3a8:	646e6172 	strbtvs	r6, [lr], #-370	; 0x172
 3ac:	69617700 	stmdbvs	r1!, {r8, r9, sl, ip, sp, lr}^
 3b0:	73690074 	cmnvc	r9, #116	; 0x74
 3b4:	6e6f635f 	mcrvs	3, 3, r6, cr15, cr15, {2}
 3b8:	7463656e 	strbtvc	r6, [r3], #-1390	; 0x56e
 3bc:	70006465 	andvc	r6, r0, r5, ror #8
 3c0:	68637475 	stmdavs	r3!, {r0, r2, r4, r5, r6, sl, ip, sp, lr}^
 3c4:	5f007261 	svcpl	0x00007261
 3c8:	75736572 	ldrbvc	r6, [r3, #-1394]!	; 0x572
 3cc:	6b5f746c 	blvs	17dd584 <__etext+0x17dabc4>
 3d0:	74735f00 	ldrbtvc	r5, [r3], #-3840	; 0xf00
 3d4:	72726564 	rsbsvc	r6, r2, #100, 10	; 0x19000000
 3d8:	65725f00 	ldrbvs	r5, [r2, #-3840]!	; 0xf00
 3dc:	746c7573 	strbtvc	r7, [ip], #-1395	; 0x573
 3e0:	73645f00 	cmnvc	r4, #0, 30
 3e4:	61685f6f 	cmnvs	r8, pc, ror #30
 3e8:	656c646e 	strbvs	r6, [ip, #-1134]!	; 0x46e
 3ec:	675f5f00 	ldrbvs	r5, [pc, -r0, lsl #30]
 3f0:	5f63756e 	svcpl	0x0063756e
 3f4:	6c5f6176 	ldfvse	f6, [pc], {118}	; 0x76
 3f8:	00747369 	rsbseq	r7, r4, r9, ror #6
 3fc:	6d745f5f 	ldclvs	15, cr5, [r4, #-380]!	; 0xfffffe84
 400:	6164775f 	cmnvs	r4, pc, asr r7
 404:	5f5f0079 	svcpl	0x005f0079
 408:	695f6d74 	ldmdbvs	pc, {r2, r4, r5, r6, r8, sl, fp, sp, lr}^	; <UNPREDICTABLE>
 40c:	74736473 	ldrbtvc	r6, [r3], #-1139	; 0x473
 410:	70667600 	rsbvc	r7, r6, r0, lsl #12
 414:	746e6972 	strbtvc	r6, [lr], #-2418	; 0x972
 418:	6e750066 	cdpvs	0, 7, cr0, cr5, cr6, {3}
 41c:	6e676973 	mcrvs	9, 3, r6, cr7, cr3, {3}
 420:	63206465 	teqvs	r0, #1694498816	; 0x65000000
 424:	00726168 	rsbseq	r6, r2, r8, ror #2
 428:	315f3250 	cmpcc	pc, r0, asr r2	; <UNPREDICTABLE>
 42c:	5f325000 	svcpl	0x00325000
 430:	32500032 	subscc	r0, r0, #50	; 0x32
 434:	5000335f 	andpl	r3, r0, pc, asr r3
 438:	00345f32 	eorseq	r5, r4, r2, lsr pc
 43c:	355f3250 	ldrbcc	r3, [pc, #-592]	; 1f4 <NVIC_SetVector+0xc>
 440:	5f325000 	svcpl	0x00325000
 444:	32500036 	subscc	r0, r0, #54	; 0x36
 448:	5000375f 	andpl	r3, r0, pc, asr r7
 44c:	00385f32 	eorseq	r5, r8, r2, lsr pc
 450:	395f3250 	ldmdbcc	pc, {r4, r6, r9, ip, sp}^	; <UNPREDICTABLE>
 454:	69616d00 	stmdbvs	r1!, {r8, sl, fp, sp, lr}^
 458:	70632e6e 	rsbvc	r2, r3, lr, ror #28
 45c:	73730070 	cmnvc	r3, #112	; 0x70
 460:	666e6163 	strbtvs	r6, [lr], -r3, ror #2
 464:	626d5f00 	rsbvs	r5, sp, #0, 30
 468:	6f747273 	svcvs	0x00747273
 46c:	5f736377 	svcpl	0x00736377
 470:	74617473 	strbtvc	r7, [r1], #-1139	; 0x473
 474:	775f0065 	ldrbvc	r0, [pc, -r5, rrx]
 478:	66007364 	strvs	r7, [r0], -r4, ror #6
 47c:	74616f6c 	strbtvc	r6, [r1], #-3948	; 0xf6c
 480:	69735f00 	ldmdbvs	r3!, {r8, r9, sl, fp, ip, lr}^
 484:	5500657a 	strpl	r6, [r0, #-1402]	; 0x57a
 488:	58524253 	ldmdapl	r2, {r0, r1, r4, r6, r9, lr}^
 48c:	5f325000 	svcpl	0x00325000
 490:	74730030 	ldrbtvc	r0, [r3], #-48	; 0x30
 494:	6d636e72 	stclvs	14, cr6, [r3, #-456]!	; 0xfffffe38
 498:	65730070 	ldrbvs	r0, [r3, #-112]!	; 0x70
 49c:	66756274 			; <UNDEFINED> instruction: 0x66756274
 4a0:	705f5f00 	subsvc	r5, pc, r0, lsl #30
 4a4:	726f6972 	rsbvc	r6, pc, #1867776	; 0x1c8000
 4a8:	00797469 	rsbseq	r7, r9, r9, ror #8
 4ac:	344e5a5f 	strbcc	r5, [lr], #-2655	; 0xa5f
 4b0:	6465626d 	strbtvs	r6, [r5], #-621	; 0x26d
 4b4:	69443031 	stmdbvs	r4, {r0, r4, r5, ip, sp}^
 4b8:	61746967 	cmnvs	r4, r7, ror #18
 4bc:	74754f6c 	ldrbtvc	r4, [r5], #-3948	; 0xf6c
 4c0:	45697663 	strbmi	r7, [r9, #-1635]!	; 0x663
 4c4:	5a5f0076 	bpl	17c06a4 <__etext+0x17bdce4>
 4c8:	626d344e 	rsbvs	r3, sp, #1308622848	; 0x4e000000
 4cc:	30316465 	eorscc	r6, r1, r5, ror #8
 4d0:	69676944 	stmdbvs	r7!, {r2, r6, r8, fp, sp, lr}^
 4d4:	4f6c6174 	svcmi	0x006c6174
 4d8:	77357475 			; <UNDEFINED> instruction: 0x77357475
 4dc:	65746972 	ldrbvs	r6, [r4, #-2418]!	; 0x972
 4e0:	5f006945 	svcpl	0x00006945
 4e4:	5f6d745f 	svcpl	0x006d745f
 4e8:	72616579 	rsbvc	r6, r1, #507510784	; 0x1e400000
 4ec:	77657200 	strbvc	r7, [r5, -r0, lsl #4]!
 4f0:	00646e69 	rsbeq	r6, r4, r9, ror #28
 4f4:	54425355 	strbpl	r5, [r2], #-853	; 0x355
 4f8:	74730058 	ldrbtvc	r0, [r3], #-88	; 0x58
 4fc:	61636e72 	smcvs	14050	; 0x36e2
 500:	6d5f0074 	ldclvs	0, cr0, [pc, #-464]	; 338 <_read+0x3c>
 504:	00746c75 	rsbseq	r6, r4, r5, ror ip
 508:	72626d5f 	rsbvc	r6, r2, #6080	; 0x17c0
 50c:	5f6e656c 	svcpl	0x006e656c
 510:	74617473 	strbtvc	r7, [r1], #-1139	; 0x473
 514:	74730065 	ldrbtvc	r0, [r3], #-101	; 0x65
 518:	70636e72 	rsbvc	r6, r3, r2, ror lr
 51c:	74660079 	strbtvc	r0, [r6], #-121	; 0x79
 520:	006c6c65 	rsbeq	r6, ip, r5, ror #24
 524:	6474735f 	ldrbtvs	r7, [r4], #-863	; 0x35f
 528:	5f006e69 	svcpl	0x00006e69
 52c:	6c616d6e 	stclvs	13, cr6, [r1], #-440	; 0xfffffe48
 530:	00636f6c 	rsbeq	r6, r3, ip, ror #30
 534:	344e5a5f 	strbcc	r5, [lr], #-2655	; 0xa5f
 538:	6465626d 	strbtvs	r6, [r5], #-621	; 0x26d
 53c:	69443031 	stmdbvs	r4, {r0, r4, r5, ip, sp}^
 540:	61746967 	cmnvs	r4, r7, ror #18
 544:	74754f6c 	ldrbtvc	r4, [r5], #-3948	; 0xf6c
 548:	61657234 	cmnvs	r5, r4, lsr r2
 54c:	00764564 	rsbseq	r4, r6, r4, ror #10
 550:	305f3350 	subscc	r3, pc, r0, asr r3	; <UNPREDICTABLE>
 554:	5f335000 	svcpl	0x00335000
 558:	33500031 	cmpcc	r0, #49	; 0x31
 55c:	5000325f 	andpl	r3, r0, pc, asr r2
 560:	00335f33 	eorseq	r5, r3, r3, lsr pc
 564:	345f3350 	ldrbcc	r3, [pc], #-848	; 56c <mbed_die+0xd4>
 568:	5f335000 	svcpl	0x00335000
 56c:	33500035 	cmpcc	r0, #53	; 0x35
 570:	5000365f 	andpl	r3, r0, pc, asr r6
 574:	00375f33 	eorseq	r5, r7, r3, lsr pc
 578:	385f3350 	ldmdacc	pc, {r4, r6, r8, r9, ip, sp}^	; <UNPREDICTABLE>
 57c:	5f335000 	svcpl	0x00335000
 580:	6f5f0039 	svcvs	0x005f0039
 584:	745f6666 	ldrbvc	r6, [pc], #-1638	; 58c <mbed_die+0xf4>
 588:	7a697300 	bvc	1a5d190 <__etext+0x1a5a7d0>
 58c:	00745f65 	rsbseq	r5, r4, r5, ror #30
 590:	636f6c5f 	cmnvs	pc, #24320	; 0x5f00
 594:	69746c61 	ldmdbvs	r4!, {r0, r5, r6, sl, fp, sp, lr}^
 598:	625f656d 	subsvs	r6, pc, #457179136	; 0x1b400000
 59c:	5f006675 	svcpl	0x00006675
 5a0:	756f635f 	strbvc	r6, [pc, #-863]!	; 249 <Reset_Handler+0x25>
 5a4:	7100746e 	tstvc	r0, lr, ror #8
 5a8:	00746f75 	rsbseq	r6, r4, r5, ror pc
 5ac:	7362616c 	cmnvc	r2, #108, 2
 5b0:	4e414300 	cdpmi	3, 4, cr4, cr1, cr0, {0}
 5b4:	65747845 	ldrbvs	r7, [r4, #-2117]!	; 0x845
 5b8:	6465646e 	strbtvs	r6, [r5], #-1134	; 0x46e
 5bc:	72657000 	rsbvc	r7, r5, #0
 5c0:	00726f72 	rsbseq	r6, r2, r2, ror pc
 5c4:	7476635f 	ldrbtvc	r6, [r6], #-863	; 0x35f
 5c8:	00667562 	rsbeq	r7, r6, r2, ror #10
 5cc:	72497852 	subvc	r7, r9, #5373952	; 0x520000
 5d0:	5f5f0071 	svcpl	0x005f0071
 5d4:	62686377 	rsbvs	r6, r8, #-603979775	; 0xdc000001
 5d8:	626d5f00 	rsbvs	r5, sp, #0, 30
 5dc:	776f7472 			; <UNDEFINED> instruction: 0x776f7472
 5e0:	74735f63 	ldrbtvc	r5, [r3], #-3939	; 0xf63
 5e4:	00657461 	rsbeq	r7, r5, r1, ror #8
 5e8:	5f676572 	svcpl	0x00676572
 5ec:	00726c63 	rsbseq	r6, r2, r3, ror #24
 5f0:	6d745f5f 	ldclvs	15, cr5, [r4, #-380]!	; 0xfffffe84
 5f4:	756f685f 	strbvc	r6, [pc, #-2143]!	; fffffd9d <Image$$RW_IRAM3$$Base+0xdff7fd9d>
 5f8:	41430072 	hvcmi	12290	; 0x3002
 5fc:	7079544e 	rsbsvc	r5, r9, lr, asr #8
 600:	69770065 	ldmdbvs	r7!, {r0, r2, r5, r6}^
 604:	745f746e 	ldrbvc	r7, [pc], #-1134	; 60c <serial_irq_set_internal+0x4>
 608:	6c626d00 	stclvs	13, cr6, [r2], #-0
 60c:	5f006e65 	svcpl	0x00006e65
 610:	0077656e 	rsbseq	r6, r7, lr, ror #10
 614:	6f696e5f 	svcvs	0x00696e5f
 618:	5f007362 	svcpl	0x00007362
 61c:	5f6d745f 	svcpl	0x006d745f
 620:	7961646d 	stmdbvc	r1!, {r0, r2, r3, r5, r6, sl, sp, lr}^
 624:	5f335000 	svcpl	0x00335000
 628:	5f003632 	svcpl	0x00003632
 62c:	72616e66 	rsbvc	r6, r1, #1632	; 0x660
 630:	5f007367 	svcpl	0x00007367
 634:	73756e75 	cmnvc	r5, #1872	; 0x750
 638:	43006465 	movwmi	r6, #1125	; 0x465
 63c:	61444e41 	cmpvs	r4, r1, asr #28
 640:	50006174 	andpl	r6, r0, r4, ror r1
 644:	00305f34 	eorseq	r5, r0, r4, lsr pc
 648:	315f3450 	cmpcc	pc, r0, asr r4	; <UNPREDICTABLE>
 64c:	5f345000 	svcpl	0x00345000
 650:	34500032 	ldrbcc	r0, [r0], #-50	; 0x32
 654:	5000335f 	andpl	r3, r0, pc, asr r3
 658:	00345f34 	eorseq	r5, r4, r4, lsr pc
 65c:	355f3450 	ldrbcc	r3, [pc, #-1104]	; 214 <NVIC_SetVector+0x2c>
 660:	5f345000 	svcpl	0x00345000
 664:	34500036 	ldrbcc	r0, [r0], #-54	; 0x36
 668:	5000375f 	andpl	r3, r0, pc, asr r7
 66c:	00385f34 	eorseq	r5, r8, r4, lsr pc
 670:	395f3450 	ldmdbcc	pc, {r4, r6, sl, ip, sp}^	; <UNPREDICTABLE>
 674:	6f635f00 	svcvs	0x00635f00
 678:	65696b6f 	strbvs	r6, [r9, #-2927]!	; 0xb6f
 67c:	72747300 	rsbsvc	r7, r4, #0, 6
 680:	6f727265 	svcvs	0x00727265
 684:	70450072 	subvc	r0, r5, r2, ror r0
 688:	00717249 	rsbseq	r7, r1, r9, asr #4
 68c:	73696874 	cmnvc	r9, #116, 16	; 0x740000
 690:	6c636600 	stclvs	6, cr6, [r3], #-0
 694:	0065736f 	rsbeq	r7, r5, pc, ror #6
 698:	74727473 	ldrbtvc	r7, [r2], #-1139	; 0x473
 69c:	006c756f 	rsbeq	r7, ip, pc, ror #10
 6a0:	6f697067 	svcvs	0x00697067
 6a4:	696e695f 	stmdbvs	lr!, {r0, r1, r2, r3, r4, r6, r8, fp, sp, lr}^
 6a8:	756f5f74 	strbvc	r5, [pc, #-3956]!	; fffff73c <Image$$RW_IRAM3$$Base+0xdff7f73c>
 6ac:	74730074 	ldrbtvc	r0, [r3], #-116	; 0x74
 6b0:	72667872 	rsbvc	r7, r6, #7471104	; 0x720000
 6b4:	695f006d 	ldmdbvs	pc, {r0, r2, r3, r5, r6}^	; <UNPREDICTABLE>
 6b8:	5f00636e 	svcpl	0x0000636e
 6bc:	00646e69 	rsbeq	r6, r4, r9, ror #28
 6c0:	66706d74 			; <UNDEFINED> instruction: 0x66706d74
 6c4:	00656c69 	rsbeq	r6, r5, r9, ror #24
 6c8:	6d745f5f 	ldclvs	15, cr5, [r4, #-380]!	; 0xfffffe84
 6cc:	6365735f 	cmnvs	r5, #2080374785	; 0x7c000001
 6d0:	73637700 	cmnvc	r3, #0, 14
 6d4:	626d6f74 	rsbvs	r6, sp, #116, 30	; 0x1d0
 6d8:	665f0073 			; <UNDEFINED> instruction: 0x665f0073
 6dc:	6c656572 	cfstr64vs	mvdx6, [r5], #-456	; 0xfffffe38
 6e0:	00747369 	rsbseq	r7, r4, r9, ror #6
 6e4:	5f6e6f5f 	svcpl	0x006e6f5f
 6e8:	74697865 	strbtvc	r7, [r9], #-2149	; 0x865
 6ec:	6772615f 			; <UNDEFINED> instruction: 0x6772615f
 6f0:	775f0073 			; <UNDEFINED> instruction: 0x775f0073
 6f4:	6f747263 	svcvs	0x00747263
 6f8:	735f626d 	cmpvc	pc, #-805306362	; 0xd0000006
 6fc:	65746174 	ldrbvs	r6, [r4, #-372]!	; 0x174
 700:	6d656d00 	stclvs	13, cr6, [r5, #-0]
 704:	00746573 	rsbseq	r6, r4, r3, ror r5
 708:	72497557 	subvc	r7, r9, #364904448	; 0x15c00000
 70c:	6c630071 	stclvs	0, cr0, [r3], #-452	; 0xfffffe3c
 710:	65726165 	ldrbvs	r6, [r2, #-357]!	; 0x165
 714:	43007272 	movwmi	r7, #626	; 0x272
 718:	6e414e41 	cdpvs	14, 4, cr4, cr1, cr1, {2}
 71c:	6e750079 	mrcvs	0, 3, r0, cr5, cr9, {3}
 720:	63746567 	cmnvs	r4, #432013312	; 0x19c00000
 724:	555f5f00 	ldrbpl	r5, [pc, #-3840]	; fffff82c <Image$$RW_IRAM3$$Base+0xdff7f82c>
 728:	676e6f4c 	strbvs	r6, [lr, -ip, asr #30]!
 72c:	61727300 	cmnvs	r2, r0, lsl #6
 730:	5f00646e 	svcpl	0x0000646e
 734:	6d344e5a 	ldcvs	14, cr4, [r4, #-360]!	; 0xfffffe98
 738:	31646562 	cmncc	r4, r2, ror #10
 73c:	67694430 			; <UNDEFINED> instruction: 0x67694430
 740:	6c617469 	cfstrdvs	mvd7, [r1], #-420	; 0xfffffe5c
 744:	6174754f 	cmnvs	r4, pc, asr #10
 748:	53524553 	cmppl	r2, #348127232	; 0x14c00000
 74c:	67005f30 	smladxvs	r0, r0, pc, r5	; <UNPREDICTABLE>
 750:	006f6970 	rsbeq	r6, pc, r0, ror r9	; <UNPREDICTABLE>
 754:	7275635f 	rsbsvc	r6, r5, #2080374785	; 0x7c000001
 758:	746e6572 	strbtvc	r6, [lr], #-1394	; 0x572
 75c:	7461635f 	strbtvc	r6, [r1], #-863	; 0x35f
 760:	726f6765 	rsbvc	r6, pc, #26476544	; 0x1940000
 764:	735f0079 	cmpvc	pc, #121	; 0x79
 768:	6f747274 	svcvs	0x00747274
 76c:	616c5f6b 	cmnvs	ip, fp, ror #30
 770:	50007473 	andpl	r7, r0, r3, ror r4
 774:	30315f33 	eorscc	r5, r1, r3, lsr pc
 778:	5f335000 	svcpl	0x00335000
 77c:	50003131 	andpl	r3, r0, r1, lsr r1
 780:	32315f33 	eorscc	r5, r1, #51, 30	; 0xcc
 784:	5f335000 	svcpl	0x00335000
 788:	50003331 	andpl	r3, r0, r1, lsr r3
 78c:	34315f33 	ldrtcc	r5, [r1], #-3891	; 0xf33
 790:	5f335000 	svcpl	0x00335000
 794:	50003531 	andpl	r3, r0, r1, lsr r5
 798:	36315f33 	shasxcc	r5, r1, r3
 79c:	5f335000 	svcpl	0x00335000
 7a0:	50003731 	andpl	r3, r0, r1, lsr r7
 7a4:	38315f33 	ldmdacc	r1!, {r0, r1, r4, r5, r8, r9, sl, fp, ip, lr}
 7a8:	5f335000 	svcpl	0x00335000
 7ac:	73003931 	movwvc	r3, #2353	; 0x931
 7b0:	74657a69 	strbtvc	r7, [r5], #-2665	; 0xa69
 7b4:	00657079 	rsbeq	r7, r5, r9, ror r0
 7b8:	6565735f 	strbvs	r7, [r5, #-863]!	; 0x35f
 7bc:	735f0064 	cmpvc	pc, #100	; 0x64
 7c0:	006b6565 	rsbeq	r6, fp, r5, ror #10
 7c4:	5f676572 	svcpl	0x00676572
 7c8:	73006e69 	movwvc	r6, #3689	; 0xe69
 7cc:	65747379 	ldrbvs	r7, [r4, #-889]!	; 0x379
 7d0:	3350006d 	cmpcc	r0, #109	; 0x6d
 7d4:	0030325f 	eorseq	r3, r0, pc, asr r2
 7d8:	325f3350 	subscc	r3, pc, #80, 6	; 0x40000001
 7dc:	33500031 	cmpcc	r0, #49	; 0x31
 7e0:	0032325f 	eorseq	r3, r2, pc, asr r2
 7e4:	325f3350 	subscc	r3, pc, #80, 6	; 0x40000001
 7e8:	33500033 	cmpcc	r0, #51	; 0x33
 7ec:	0034325f 	eorseq	r3, r4, pc, asr r2
 7f0:	325f3350 	subscc	r3, pc, #80, 6	; 0x40000001
 7f4:	68730035 	ldmdavs	r3!, {r0, r2, r4, r5}^
 7f8:	2074726f 	rsbscs	r7, r4, pc, ror #4
 7fc:	69736e75 	ldmdbvs	r3!, {r0, r2, r4, r5, r6, r9, sl, fp, sp, lr}^
 800:	64656e67 	strbtvs	r6, [r5], #-3687	; 0xe67
 804:	746e6920 	strbtvc	r6, [lr], #-2336	; 0x920
 808:	5f335000 	svcpl	0x00335000
 80c:	50003732 	andpl	r3, r0, r2, lsr r7
 810:	38325f33 	ldmdacc	r2!, {r0, r1, r4, r5, r8, r9, sl, fp, ip, lr}
 814:	5f335000 	svcpl	0x00335000
 818:	72003932 	andvc	r3, r0, #819200	; 0xc8000
 81c:	645f6765 	ldrbvs	r6, [pc], #-1893	; 824 <serial_baud+0x1c>
 820:	43007269 	movwmi	r7, #617	; 0x269
 824:	6f464e41 	svcvs	0x00464e41
 828:	74616d72 	strbtvc	r6, [r1], #-3442	; 0xd72
 82c:	5f335000 	svcpl	0x00335000
 830:	50003033 	andpl	r3, r0, r3, lsr r0
 834:	31335f33 	teqcc	r3, r3, lsr pc
 838:	5f315000 	svcpl	0x00315000
 83c:	50003031 	andpl	r3, r0, r1, lsr r0
 840:	31315f31 	teqcc	r1, r1, lsr pc
 844:	5f315000 	svcpl	0x00315000
 848:	50003231 	andpl	r3, r0, r1, lsr r2
 84c:	33315f31 	teqcc	r1, #49, 30	; 0xc4
 850:	5f315000 	svcpl	0x00315000
 854:	50003431 	andpl	r3, r0, r1, lsr r4
 858:	35315f31 	ldrcc	r5, [r1, #-3889]!	; 0xf31
 85c:	5f315000 	svcpl	0x00315000
 860:	50003631 	andpl	r3, r0, r1, lsr r6
 864:	37315f31 			; <UNDEFINED> instruction: 0x37315f31
 868:	5f315000 	svcpl	0x00315000
 86c:	50003831 	andpl	r3, r0, r1, lsr r8
 870:	39315f31 	ldmdbcc	r1!, {r0, r4, r5, r8, r9, sl, fp, ip, lr}
 874:	68637700 	stmdavs	r3!, {r8, r9, sl, ip, sp, lr}^
 878:	745f7261 	ldrbvc	r7, [pc], #-609	; 880 <serial_baud+0x78>
 87c:	666f5f00 	strbtvs	r5, [pc], -r0, lsl #30
 880:	74657366 	strbtvc	r7, [r5], #-870	; 0x366
 884:	67694400 	strbvs	r4, [r9, -r0, lsl #8]!
 888:	6c617469 	cfstrdvs	mvd7, [r1], #-420	; 0xfffffe5c
 88c:	0074754f 	rsbseq	r7, r4, pc, asr #10
 890:	73727473 	cmnvc	r2, #1929379840	; 0x73000000
 894:	50006e70 	andpl	r6, r0, r0, ror lr
 898:	30325f31 	eorscc	r5, r2, r1, lsr pc
 89c:	5f315000 	svcpl	0x00315000
 8a0:	50003132 	andpl	r3, r0, r2, lsr r1
 8a4:	32325f31 	eorscc	r5, r2, #49, 30	; 0xc4
 8a8:	5f315000 	svcpl	0x00315000
 8ac:	50003332 	andpl	r3, r0, r2, lsr r3
 8b0:	34325f31 	ldrtcc	r5, [r2], #-3889	; 0xf31
 8b4:	5f315000 	svcpl	0x00315000
 8b8:	50003532 	andpl	r3, r0, r2, lsr r5
 8bc:	36325f31 	shasxcc	r5, r2, r1
 8c0:	5f315000 	svcpl	0x00315000
 8c4:	50003732 	andpl	r3, r0, r2, lsr r7
 8c8:	38325f31 	ldmdacc	r2!, {r0, r4, r5, r8, r9, sl, fp, ip, lr}
 8cc:	5f315000 	svcpl	0x00315000
 8d0:	5f003932 	svcpl	0x00003932
 8d4:	7562735f 	strbvc	r7, [r2, #-863]!	; 0x35f
 8d8:	626d0066 	rsbvs	r0, sp, #102	; 0x66
 8dc:	776f7473 			; <UNDEFINED> instruction: 0x776f7473
 8e0:	5f007363 	svcpl	0x00007363
 8e4:	6134366c 	teqvs	r4, ip, ror #12
 8e8:	6675625f 			; <UNDEFINED> instruction: 0x6675625f
 8ec:	43324900 	teqmi	r2, #0, 18
 8f0:	4c43535f 	mcrrmi	3, 5, r5, r3, cr15
 8f4:	64615f00 	strbtvs	r5, [r1], #-3840	; 0xf00
 8f8:	31500064 	cmpcc	r0, r4, rrx
 8fc:	0030335f 	eorseq	r3, r0, pc, asr r3
 900:	335f3150 	cmpcc	pc, #80, 2
 904:	615f0031 	cmpvs	pc, r1, lsr r0	; <UNPREDICTABLE>
 908:	69746373 	ldmdbvs	r4!, {r0, r1, r4, r5, r6, r8, r9, sp, lr}^
 90c:	625f656d 	subsvs	r6, pc, #457179136	; 0x1b400000
 910:	5f006675 	svcpl	0x00006675
 914:	6863775f 	stmdavs	r3!, {r0, r1, r2, r3, r4, r6, r8, r9, sl, ip, sp, lr}^
 918:	43324900 	teqmi	r2, #0, 18
 91c:	4144535f 	cmpmi	r4, pc, asr r3
 920:	63775f00 	cmnvs	r7, #0, 30
 924:	6f747273 	svcvs	0x00747273
 928:	5f73626d 	svcpl	0x0073626d
 92c:	74617473 	strbtvc	r7, [r1], #-1139	; 0x473
 930:	65720065 	ldrbvs	r0, [r2, #-101]!	; 0x65
 934:	65766f6d 	ldrbvs	r6, [r6, #-3949]!	; 0xf6d
 938:	4f4c5f00 	svcmi	0x004c5f00
 93c:	525f4b43 	subspl	r4, pc, #68608	; 0x10c00
 940:	52554345 	subspl	r4, r5, #335544321	; 0x14000001
 944:	45564953 	ldrbmi	r4, [r6, #-2387]	; 0x953
 948:	6600545f 			; <UNDEFINED> instruction: 0x6600545f
 94c:	70746567 	rsbsvc	r6, r4, r7, ror #10
 950:	5f00736f 	svcpl	0x0000736f
 954:	6f746377 	svcvs	0x00746377
 958:	735f626d 	cmpvc	pc, #-805306362	; 0xd0000006
 95c:	65746174 	ldrbvs	r6, [r4, #-372]!	; 0x174
 960:	6f695f00 	svcvs	0x00695f00
 964:	5f007362 	svcpl	0x00007362
 968:	72656d65 	rsbvc	r6, r5, #6464	; 0x1940
 96c:	636e6567 	cmnvs	lr, #432013312	; 0x19c00000
 970:	6e5f0079 	mrcvs	0, 2, r0, cr15, cr9, {3}
 974:	66747865 	ldrbtvs	r7, [r4], -r5, ror #16
 978:	61725f00 	cmnvs	r2, r0, lsl #30
 97c:	6e5f646e 	cdpvs	4, 5, cr6, cr15, cr14, {3}
 980:	00747865 	rsbseq	r7, r4, r5, ror #16
 984:	73727473 	cmnvc	r2, #1929379840	; 0x73000000
 988:	5f007274 	svcpl	0x00007274
 98c:	7778616d 	ldrbvc	r6, [r8, -sp, ror #2]!
 990:	73007364 	movwvc	r7, #868	; 0x364
 994:	6f747274 	svcvs	0x00747274
 998:	74730064 	ldrbtvc	r0, [r3], #-100	; 0x64
 99c:	6b6f7472 	blvs	1bddb6c <__etext+0x1bdb1ac>
 9a0:	72747300 	rsbsvc	r7, r4, #0, 6
 9a4:	006c6f74 	rsbeq	r6, ip, r4, ror pc
 9a8:	72496f44 	subvc	r6, r9, #68, 30	; 0x110
 9ac:	6f6c0071 	svcvs	0x006c0071
 9b0:	6420676e 	strtvs	r6, [r0], #-1902	; 0x76e
 9b4:	6c62756f 	cfstr64vs	mvdx7, [r2], #-444	; 0xfffffe44
 9b8:	74730065 	ldrbtvc	r0, [r3], #-101	; 0x65
 9bc:	72627072 	rsbvc	r7, r2, #114	; 0x72
 9c0:	6f62006b 	svcvs	0x0062006b
 9c4:	74006c6f 	strvc	r6, [r0], #-3183	; 0xc6f
 9c8:	616e706d 	cmnvs	lr, sp, rrx
 9cc:	6566006d 	strbvs	r0, [r6, #-109]!	; 0x6d
 9d0:	726f7272 	rsbvc	r7, pc, #536870919	; 0x20000007
 9d4:	6f6c5f00 	svcvs	0x006c5f00
 9d8:	5f006b63 	svcpl	0x00006b63
 9dc:	736f6c63 	cmnvc	pc, #25344	; 0x6300
 9e0:	675f0065 	ldrbvs	r0, [pc, -r5, rrx]
 9e4:	0065756c 	rsbeq	r7, r5, ip, ror #10
 9e8:	61637366 	cmnvs	r3, r6, ror #6
 9ec:	5f00666e 	svcpl	0x0000666e
 9f0:	6174735f 	cmnvs	r4, pc, asr r3
 9f4:	5f636974 	svcpl	0x00636974
 9f8:	74696e69 	strbtvc	r6, [r9], #-3689	; 0xe69
 9fc:	696c6169 	stmdbvs	ip!, {r0, r3, r5, r6, r8, sp, lr}^
 a00:	6974617a 	ldmdbvs	r4!, {r1, r3, r4, r5, r6, r8, sp, lr}^
 a04:	615f6e6f 	cmpvs	pc, pc, ror #28
 a08:	645f646e 	ldrbvs	r6, [pc], #-1134	; a10 <serial_baud+0x208>
 a0c:	72747365 	rsbsvc	r7, r4, #-1811939327	; 0x94000001
 a10:	69746375 	ldmdbvs	r4!, {r0, r2, r4, r5, r6, r8, r9, sp, lr}^
 a14:	305f6e6f 	subscc	r6, pc, pc, ror #28
 a18:	70737600 	rsbsvc	r7, r3, r0, lsl #12
 a1c:	746e6972 	strbtvc	r6, [lr], #-2418	; 0x972
 a20:	30310066 	eorscc	r0, r1, r6, rrx
 a24:	73626d5f 	cmnvc	r2, #6080	; 0x17c0
 a28:	65746174 	ldrbvs	r6, [r4, #-372]!	; 0x174
 a2c:	7200745f 	andvc	r7, r0, #1593835520	; 0x5f000000
 a30:	6c6c6165 	stfvse	f6, [ip], #-404	; 0xfffffe6c
 a34:	5f00636f 	svcpl	0x0000636f
 a38:	69676942 	stmdbvs	r7!, {r1, r6, r8, fp, sp, lr}^
 a3c:	5f00746e 	svcpl	0x0000746e
 a40:	78657461 	stmdavc	r5!, {r0, r5, r6, sl, ip, sp, lr}^
 a44:	00307469 	eorseq	r7, r0, r9, ror #8
 a48:	3144454c 	cmpcc	r4, ip, asr #10
 a4c:	44454c00 	strbmi	r4, [r5], #-3072	; 0xc00
 a50:	454c0032 	strbmi	r0, [ip, #-50]	; 0x32
 a54:	4c003344 	stcmi	3, cr3, [r0], {68}	; 0x44
 a58:	00344445 	eorseq	r4, r4, r5, asr #8
 a5c:	7265706f 	rsbvc	r7, r5, #111	; 0x6f
 a60:	726f7461 	rsbvc	r7, pc, #1627389952	; 0x61000000
 a64:	746e6920 	strbtvc	r6, [lr], #-2336	; 0x920
 a68:	72747300 	rsbsvc	r7, r4, #0, 6
 a6c:	006e656c 	rsbeq	r6, lr, ip, ror #10
 a70:	7465675f 	strbtvc	r6, [r5], #-1887	; 0x75f
 a74:	65746164 	ldrbvs	r6, [r4, #-356]!	; 0x164
 a78:	7272655f 	rsbsvc	r6, r2, #398458880	; 0x17c00000
 a7c:	65736600 	ldrbvs	r6, [r3, #-1536]!	; 0x600
 a80:	62006b65 	andvs	r6, r0, #103424	; 0x19400
 a84:	72616573 	rsbvc	r6, r1, #482344960	; 0x1cc00000
 a88:	5f006863 	svcpl	0x00006863
 a8c:	6675626e 	ldrbtvs	r6, [r5], -lr, ror #4
 a90:	6c625f00 	stclvs	15, cr5, [r2], #-0
 a94:	7a69736b 	bvc	1a5d848 <__etext+0x1a5ae88>
 a98:	755f0065 	ldrbvc	r0, [pc, #-101]	; a3b <serial_baud+0x233>
 a9c:	00667562 	rsbeq	r7, r6, r2, ror #10
 aa0:	6c626d5f 	stclvs	13, cr6, [r2], #-380	; 0xfffffe84
 aa4:	735f6e65 	cmpvc	pc, #1616	; 0x650
 aa8:	65746174 	ldrbvs	r6, [r4, #-372]!	; 0x174
 aac:	735f5f00 	cmpvc	pc, #0, 30
 ab0:	65756c67 	ldrbvs	r6, [r5, #-3175]!	; 0xc67
 ab4:	65736600 	ldrbvs	r6, [r3, #-1536]!	; 0x600
 ab8:	736f7074 	cmnvc	pc, #116	; 0x74
 abc:	635f5f00 	cmpvs	pc, #0, 30
 ac0:	6e61656c 	cdpvs	5, 6, cr6, cr1, cr12, {3}
 ac4:	43007075 	movwmi	r7, #117	; 0x75
 ac8:	74534e41 	ldrbvc	r4, [r3], #-3649	; 0xe41
 acc:	61646e61 	cmnvs	r4, r1, ror #28
 ad0:	5f006472 	svcpl	0x00006472
 ad4:	736f7066 	cmnvc	pc, #102	; 0x66
 ad8:	5f00745f 	svcpl	0x0000745f
 adc:	656c6966 	strbvs	r6, [ip, #-2406]!	; 0x966
 ae0:	69646c00 	stmdbvs	r4!, {sl, fp, sp, lr}^
 ae4:	5f5f0076 	svcpl	0x005f0076
 ae8:	4c494673 	mcrrmi	6, 7, r4, r9, cr3
 aec:	665f0045 	ldrbvs	r0, [pc], -r5, asr #32
 af0:	5f00736e 	svcpl	0x0000736e
 af4:	72655f68 	rsbvc	r5, r5, #104, 30	; 0x1a0
 af8:	006f6e72 	rsbeq	r6, pc, r2, ror lr	; <UNPREDICTABLE>
 afc:	63727473 	cmnvs	r2, #1929379840	; 0x73000000
 b00:	5f007461 	svcpl	0x00007461
 b04:	746e695f 	strbtvc	r6, [lr], #-2399	; 0x95f
 b08:	745f3233 	ldrbvc	r3, [pc], #-563	; b10 <serial_writable+0x14>
 b0c:	755f5f00 	ldrbvc	r5, [pc, #-3840]	; fffffc14 <Image$$RW_IRAM3$$Base+0xdff7fc14>
 b10:	33746e69 	cmncc	r4, #1680	; 0x690
 b14:	00745f32 	rsbseq	r5, r4, r2, lsr pc
 b18:	726f7371 	rsbvc	r7, pc, #-1006632959	; 0xc4000001
 b1c:	61630074 	smcvs	12292	; 0x3004
 b20:	636f6c6c 	cmnvs	pc, #108, 24	; 0x6c00
 b24:	765f5f00 	ldrbvc	r5, [pc], -r0, lsl #30
 b28:	65756c61 	ldrbvs	r6, [r5, #-3169]!	; 0xc61
 b2c:	73695f00 	cmnvc	r9, #0, 30
 b30:	6178635f 	cmnvs	r8, pc, asr r3
 b34:	496c4100 	stmdbmi	ip!, {r8, lr}^
 b38:	5f007172 	svcpl	0x00007172
 b3c:	00733570 	rsbseq	r3, r3, r0, ror r5
 b40:	76746573 			; <UNDEFINED> instruction: 0x76746573
 b44:	00667562 	rsbeq	r7, r6, r2, ror #10
 b48:	76696435 			; <UNDEFINED> instruction: 0x76696435
 b4c:	4500745f 	strmi	r7, [r0, #-1119]	; 0x45f
 b50:	71724977 	cmnvc	r2, r7, ror r9
 b54:	67657200 	strbvs	r7, [r5, -r0, lsl #4]!
 b58:	7465735f 	strbtvc	r7, [r5], #-863	; 0x35f
 b5c:	4e5a5f00 	cdpmi	15, 5, cr5, cr10, cr0, {0}
 b60:	65626d34 	strbvs	r6, [r2, #-3380]!	; 0xd34
 b64:	44303164 	ldrtmi	r3, [r0], #-356	; 0x164
 b68:	74696769 	strbtvc	r6, [r9], #-1897	; 0x769
 b6c:	754f6c61 	strbvc	r6, [pc, #-3169]	; ffffff13 <Image$$RW_IRAM3$$Base+0xdff7ff13>
 b70:	69323174 	ldmdbvs	r2!, {r2, r4, r5, r6, r8, ip, sp}
 b74:	6f635f73 	svcvs	0x00635f73
 b78:	63656e6e 	cmnvs	r5, #1760	; 0x6e0
 b7c:	45646574 	strbmi	r6, [r4, #-1396]!	; 0x574
 b80:	626d0076 	rsbvs	r0, sp, #118	; 0x76
 b84:	63776f74 	cmnvs	r7, #116, 30	; 0x1d0
 b88:	4d544900 	ldclmi	9, cr4, [r4, #-0]
 b8c:	4278525f 	rsbsmi	r5, r8, #-268435451	; 0xf0000005
 b90:	65666675 	strbvs	r6, [r6, #-1653]!	; 0x675
 b94:	735f0072 	cmpvc	pc, #114	; 0x72
 b98:	616e6769 	cmnvs	lr, r9, ror #14
 b9c:	75625f6c 	strbvc	r5, [r2, #-3948]!	; 0xf6c
 ba0:	6f6c0066 	svcvs	0x006c0066
 ba4:	6c20676e 	stcvs	7, cr6, [r0], #-440	; 0xfffffe48
 ba8:	20676e6f 	rsbcs	r6, r7, pc, ror #28
 bac:	69736e75 	ldmdbvs	r3!, {r0, r2, r4, r5, r6, r9, sl, fp, sp, lr}^
 bb0:	64656e67 	strbtvs	r6, [r5], #-3687	; 0xe67
 bb4:	746e6920 	strbtvc	r6, [lr], #-2336	; 0x920
 bb8:	6d656d00 	stclvs	13, cr6, [r5, #-0]
 bbc:	65766f6d 	ldrbvs	r6, [r6, #-3949]!	; 0xf6d
 bc0:	635f5f00 	cmpvs	pc, #0, 30
 bc4:	61706d6f 	cmnvs	r0, pc, ror #26
 bc8:	6e665f72 	mcrvs	15, 3, r5, cr6, cr2, {3}
 bcc:	5f00745f 	svcpl	0x0000745f
 bd0:	6d6d6167 	stfvse	f6, [sp, #-412]!	; 0xfffffe64
 bd4:	69735f61 	ldmdbvs	r3!, {r0, r5, r6, r8, r9, sl, fp, ip, lr}^
 bd8:	61676e67 	cmnvs	r7, r7, ror #28
 bdc:	7076006d 	rsbsvc	r0, r6, sp, rrx
 be0:	746e6972 	strbtvc	r6, [lr], #-2418	; 0x972
 be4:	67360066 	ldrvs	r0, [r6, -r6, rrx]!
 be8:	5f6f6970 	svcpl	0x006f6970
 bec:	6f660074 	svcvs	0x00660074
 bf0:	006e6570 	rsbeq	r6, lr, r0, ror r5
 bf4:	6f697067 	svcvs	0x00697067
 bf8:	6972775f 	ldmdbvs	r2!, {r0, r1, r2, r3, r4, r6, r8, r9, sl, ip, sp, lr}^
 bfc:	67006574 	smlsdxvs	r0, r4, r5, r6
 c00:	6e657465 	cdpvs	4, 6, cr7, cr5, cr5, {3}
 c04:	5f5f0076 	svcpl	0x005f0076
 c08:	64696473 	strbtvs	r6, [r9], #-1139	; 0x473
 c0c:	74696e69 	strbtvc	r6, [r9], #-3689	; 0xe69
 c10:	615f5f00 	cmpvs	pc, r0, lsl #30
 c14:	665f0070 			; <UNDEFINED> instruction: 0x665f0070
 c18:	6b636f6c 	blvs	18dc9d0 <__etext+0x18da010>
 c1c:	7300745f 	movwvc	r7, #1119	; 0x45f
 c20:	73637274 	cmnvc	r3, #116, 4	; 0x40000007
 c24:	73006e70 	movwvc	r6, #3696	; 0xe70
 c28:	68637274 	stmdavs	r3!, {r2, r4, r5, r6, r9, ip, sp, lr}^
 c2c:	6f6c0072 	svcvs	0x006c0072
 c30:	6c20676e 	stcvs	7, cr6, [r0], #-440	; 0xfffffe48
 c34:	20676e6f 	rsbcs	r6, r7, pc, ror #28
 c38:	00746e69 	rsbseq	r6, r4, r9, ror #28
 c3c:	616c665f 	cmnvs	ip, pc, asr r6
 c40:	00327367 	eorseq	r7, r2, r7, ror #6
 c44:	72496449 	subvc	r6, r9, #1224736768	; 0x49000000
 c48:	65670071 	strbvs	r0, [r7, #-113]!	; 0x71
 c4c:	61686374 	smcvs	34356	; 0x8634
 c50:	72490072 	subvc	r0, r9, #114	; 0x72
 c54:	70795471 	rsbsvc	r5, r9, r1, ror r4
 c58:	4e470065 	cdpmi	0, 4, cr0, cr7, cr5, {3}
 c5c:	2b432055 	blcs	10c8db8 <__etext+0x10c63f8>
 c60:	2e34202b 	cdpcs	0, 3, cr2, cr4, cr11, {1}
 c64:	20332e39 	eorscs	r2, r3, r9, lsr lr
 c68:	34313032 	ldrtcc	r3, [r1], #-50	; 0x32
 c6c:	39313131 	ldmdbcc	r1!, {r0, r4, r5, r8, ip, sp}
 c70:	65722820 	ldrbvs	r2, [r2, #-2080]!	; 0x820
 c74:	7361656c 	cmnvc	r1, #108, 10	; 0x1b000000
 c78:	5b202965 	blpl	80b214 <__etext+0x808854>
 c7c:	2f4d5241 	svccs	0x004d5241
 c80:	65626d65 	strbvs	r6, [r2, #-3429]!	; 0xd65
 c84:	64656464 	strbtvs	r6, [r5], #-1124	; 0x464
 c88:	395f342d 	ldmdbcc	pc, {r0, r2, r3, r5, sl, ip, sp}^	; <UNPREDICTABLE>
 c8c:	6172622d 	cmnvs	r2, sp, lsr #4
 c90:	2068636e 	rsbcs	r6, r8, lr, ror #6
 c94:	69766572 	ldmdbvs	r6!, {r1, r4, r5, r6, r8, sl, sp, lr}^
 c98:	6e6f6973 	mcrvs	9, 3, r6, cr15, cr3, {3}
 c9c:	38313220 	ldmdacc	r1!, {r5, r9, ip, sp}
 ca0:	5d383732 	ldcpl	7, cr3, [r8, #-200]!	; 0xffffff38
 ca4:	746d2d20 	strbtvc	r2, [sp], #-3360	; 0xd20
 ca8:	626d7568 	rsbvs	r7, sp, #104, 10	; 0x1a000000
 cac:	636d2d20 	cmnvs	sp, #32, 26	; 0x800
 cb0:	633d7570 	teqvs	sp, #112, 10	; 0x1c000000
 cb4:	6574726f 	ldrbvs	r7, [r4, #-623]!	; 0x26f
 cb8:	336d2d78 	cmncc	sp, #120, 26	; 0x1e00
 cbc:	20672d20 	rsbcs	r2, r7, r0, lsr #26
 cc0:	6467672d 	strbtvs	r6, [r7], #-1837	; 0x72d
 cc4:	4f2d2062 	svcmi	0x002d2062
 cc8:	732d2073 	teqvc	sp, #115	; 0x73
 ccc:	673d6474 			; <UNDEFINED> instruction: 0x673d6474
 cd0:	2b2b756e 	blcs	ade290 <__etext+0xadb8d0>
 cd4:	2d203839 	stccs	8, cr3, [r0, #-228]!	; 0xffffff1c
 cd8:	2d6f6e66 	stclcs	14, cr6, [pc, #-408]!	; b48 <serial_writable+0x4c>
 cdc:	69727473 	ldmdbvs	r2!, {r0, r1, r4, r5, r6, sl, ip, sp, lr}^
 ce0:	612d7463 	teqvs	sp, r3, ror #8
 ce4:	7361696c 	cmnvc	r1, #108, 18	; 0x1b0000
 ce8:	20676e69 	rsbcs	r6, r7, r9, ror #28
 cec:	6f6e662d 	svcvs	0x006e662d
 cf0:	7474722d 	ldrbtvc	r7, [r4], #-557	; 0x22d
 cf4:	662d2069 	strtvs	r2, [sp], -r9, rrx
 cf8:	636e7566 	cmnvs	lr, #427819008	; 0x19800000
 cfc:	6e6f6974 	mcrvs	9, 3, r6, cr15, cr4, {3}
 d00:	6365732d 	cmnvs	r5, #-1275068416	; 0xb4000000
 d04:	6e6f6974 	mcrvs	9, 3, r6, cr15, cr4, {3}
 d08:	662d2073 			; <UNDEFINED> instruction: 0x662d2073
 d0c:	61746164 	cmnvs	r4, r4, ror #2
 d10:	6365732d 	cmnvs	r5, #-1275068416	; 0xb4000000
 d14:	6e6f6974 	mcrvs	9, 3, r6, cr15, cr4, {3}
 d18:	662d2073 			; <UNDEFINED> instruction: 0x662d2073
 d1c:	652d6f6e 	strvs	r6, [sp, #-3950]!	; 0xf6e
 d20:	70656378 	rsbvc	r6, r5, r8, ror r3
 d24:	6e6f6974 	mcrvs	9, 3, r6, cr15, cr4, {3}
 d28:	662d2073 			; <UNDEFINED> instruction: 0x662d2073
 d2c:	642d6f6e 	strtvs	r6, [sp], #-3950	; 0xf6e
 d30:	74656c65 	strbtvc	r6, [r5], #-3173	; 0xc65
 d34:	756e2d65 	strbvc	r2, [lr, #-3429]!	; 0xd65
 d38:	702d6c6c 	eorvc	r6, sp, ip, ror #24
 d3c:	746e696f 	strbtvc	r6, [lr], #-2415	; 0x96f
 d40:	632d7265 	teqvs	sp, #1342177286	; 0x50000006
 d44:	6b636568 	blvs	18da2ec <__etext+0x18d792c>
 d48:	662d2073 			; <UNDEFINED> instruction: 0x662d2073
 d4c:	7373656d 	cmnvc	r3, #457179136	; 0x1b400000
 d50:	2d656761 	stclcs	7, cr6, [r5, #-388]!	; 0xfffffe7c
 d54:	676e656c 	strbvs	r6, [lr, -ip, ror #10]!
 d58:	303d6874 	eorscc	r6, sp, r4, ror r8
 d5c:	6e662d20 	cdpvs	13, 6, cr2, cr6, cr0, {1}
 d60:	75622d6f 	strbvc	r2, [r2, #-3439]!	; 0xd6f
 d64:	69746c69 	ldmdbvs	r4!, {r0, r3, r5, r6, sl, fp, sp, lr}^
 d68:	735f006e 	cmpvc	pc, #110	; 0x6e
 d6c:	006e6769 	rsbeq	r6, lr, r9, ror #14
 d70:	6d745f5f 	ldclvs	15, cr5, [r4, #-380]!	; 0xfffffe84
 d74:	6e696d5f 	mcrvs	13, 3, r6, cr9, cr15, {2}
 d78:	69616d00 	stmdbvs	r1!, {r8, sl, fp, sp, lr}^
 d7c:	725f006e 	subsvc	r0, pc, #110	; 0x6e
 d80:	66003834 			; <UNDEFINED> instruction: 0x66003834
 d84:	73756c66 	cmnvc	r5, #26112	; 0x6600
 d88:	74730068 	ldrbtvc	r0, [r3], #-104	; 0x68
 d8c:	706d6372 	rsbvc	r6, sp, r2, ror r3
 d90:	6f687300 	svcvs	0x00687300
 d94:	69207472 	stmdbvs	r0!, {r1, r4, r5, r6, sl, ip, sp, lr}
 d98:	5f00746e 	svcpl	0x0000746e
 d9c:	64616572 	strbtvs	r6, [r1], #-1394	; 0x572
 da0:	65626d00 	strbvs	r6, [r2, #-3328]!	; 0xd00
 da4:	725f0064 	subsvc	r0, pc, #100	; 0x64
 da8:	34646e61 	strbtcc	r6, [r4], #-3681	; 0xe61
 dac:	5f5f0038 	svcpl	0x005f0038
 db0:	6c5f6176 	ldfvse	f6, [pc], {118}	; 0x76
 db4:	00747369 	rsbseq	r7, r4, r9, ror #6
 db8:	636d656d 	cmnvs	sp, #457179136	; 0x1b400000
 dbc:	Address 0x0000000000000dbc is out of bounds.


Disassembly of section .debug_frame:

00000000 <.debug_frame>:
   0:	0000000c 	andeq	r0, r0, ip
   4:	ffffffff 			; <UNDEFINED> instruction: 0xffffffff
   8:	7c020001 	stcvc	0, cr0, [r2], {1}
   c:	000d0c0e 	andeq	r0, sp, lr, lsl #24
  10:	00000014 	andeq	r0, r0, r4, lsl r0
  14:	00000000 	andeq	r0, r0, r0
  18:	0000019c 	muleq	r0, ip, r1
  1c:	00000028 	andeq	r0, r0, r8, lsr #32
  20:	83080e41 	movwhi	r0, #36417	; 0x8e41
  24:	00018e02 	andeq	r8, r1, r2, lsl #28
  28:	00000018 	andeq	r0, r0, r8, lsl r0
  2c:	00000000 	andeq	r0, r0, r0
  30:	000001c4 	andeq	r0, r0, r4, asr #3
  34:	00000024 	andeq	r0, r0, r4, lsr #32
  38:	84080e41 	strhi	r0, [r8], #-3649	; 0xe41
  3c:	49018e02 	stmdbmi	r1, {r1, r9, sl, fp, pc}
  40:	000ec4ce 	andeq	ip, lr, lr, asr #9
  44:	0000000c 	andeq	r0, r0, ip
  48:	ffffffff 			; <UNDEFINED> instruction: 0xffffffff
  4c:	7c020001 	stcvc	0, cr0, [r2], {1}
  50:	000d0c0e 	andeq	r0, sp, lr, lsl #24
  54:	0000000c 	andeq	r0, r0, ip
  58:	00000044 	andeq	r0, r0, r4, asr #32
  5c:	000015e4 	andeq	r1, r0, r4, ror #11
  60:	00000008 	andeq	r0, r0, r8
  64:	0000000c 	andeq	r0, r0, ip
  68:	ffffffff 			; <UNDEFINED> instruction: 0xffffffff
  6c:	7c020001 	stcvc	0, cr0, [r2], {1}
  70:	000d0c0e 	andeq	r0, sp, lr, lsl #24
  74:	0000000c 	andeq	r0, r0, ip
  78:	00000064 	andeq	r0, r0, r4, rrx
  7c:	000015ec 	andeq	r1, r0, ip, ror #11
  80:	0000000c 	andeq	r0, r0, ip
  84:	0000000c 	andeq	r0, r0, ip
  88:	ffffffff 			; <UNDEFINED> instruction: 0xffffffff
  8c:	7c020001 	stcvc	0, cr0, [r2], {1}
  90:	000d0c0e 	andeq	r0, sp, lr, lsl #24
  94:	00000014 	andeq	r0, r0, r4, lsl r0
  98:	00000084 	andeq	r0, r0, r4, lsl #1
  9c:	000015f8 	strdeq	r1, [r0], -r8
  a0:	00000028 	andeq	r0, r0, r8, lsr #32
  a4:	83080e41 	movwhi	r0, #36417	; 0x8e41
  a8:	00018e02 	andeq	r8, r1, r2, lsl #28
  ac:	0000000c 	andeq	r0, r0, ip
  b0:	ffffffff 			; <UNDEFINED> instruction: 0xffffffff
  b4:	7c020001 	stcvc	0, cr0, [r2], {1}
  b8:	000d0c0e 	andeq	r0, sp, lr, lsl #24
  bc:	0000000c 	andeq	r0, r0, ip
  c0:	000000ac 	andeq	r0, r0, ip, lsr #1
  c4:	00000000 	andeq	r0, r0, r0
  c8:	00000004 	andeq	r0, r0, r4
  cc:	0000000c 	andeq	r0, r0, ip
  d0:	000000ac 	andeq	r0, r0, ip, lsr #1
  d4:	00000000 	andeq	r0, r0, r0
  d8:	00000004 	andeq	r0, r0, r4
  dc:	0000000c 	andeq	r0, r0, ip
  e0:	000000ac 	andeq	r0, r0, ip, lsr #1
  e4:	00001620 	andeq	r1, r0, r0, lsr #12
  e8:	0000000c 	andeq	r0, r0, ip
  ec:	00000014 	andeq	r0, r0, r4, lsl r0
  f0:	000000ac 	andeq	r0, r0, ip, lsr #1
  f4:	0000162c 	andeq	r1, r0, ip, lsr #12
  f8:	00000048 	andeq	r0, r0, r8, asr #32
  fc:	84080e41 	strhi	r0, [r8], #-3649	; 0xe41
 100:	00018e02 	andeq	r8, r1, r2, lsl #28
 104:	00000018 	andeq	r0, r0, r8, lsl r0
 108:	000000ac 	andeq	r0, r0, ip, lsr #1
 10c:	00001674 	andeq	r1, r0, r4, ror r6
 110:	0000002c 	andeq	r0, r0, ip, lsr #32
 114:	84100e41 	ldrhi	r0, [r0], #-3649	; 0xe41
 118:	86038504 	strhi	r8, [r3], -r4, lsl #10
 11c:	00018e02 	andeq	r8, r1, r2, lsl #28
 120:	0000000c 	andeq	r0, r0, ip
 124:	000000ac 	andeq	r0, r0, ip, lsr #1
 128:	00000000 	andeq	r0, r0, r0
 12c:	0000000c 	andeq	r0, r0, ip
 130:	00000014 	andeq	r0, r0, r4, lsl r0
 134:	000000ac 	andeq	r0, r0, ip, lsr #1
 138:	000016a0 	andeq	r1, r0, r0, lsr #13
 13c:	00000060 	andeq	r0, r0, r0, rrx
 140:	84080e42 	strhi	r0, [r8], #-3650	; 0xe42
 144:	00018e02 	andeq	r8, r1, r2, lsl #28
 148:	0000001c 	andeq	r0, r0, ip, lsl r0
 14c:	000000ac 	andeq	r0, r0, ip, lsr #1
 150:	00001700 	andeq	r1, r0, r0, lsl #14
 154:	00000074 	andeq	r0, r0, r4, ror r0
 158:	83180e41 	tsthi	r8, #1040	; 0x410
 15c:	85058406 	strhi	r8, [r5, #-1030]	; 0x406
 160:	87038604 	strhi	r8, [r3, -r4, lsl #12]
 164:	00018e02 	andeq	r8, r1, r2, lsl #28
 168:	0000000c 	andeq	r0, r0, ip
 16c:	000000ac 	andeq	r0, r0, ip, lsr #1
 170:	00000000 	andeq	r0, r0, r0
 174:	00000002 	andeq	r0, r0, r2
 178:	0000000c 	andeq	r0, r0, ip
 17c:	000000ac 	andeq	r0, r0, ip, lsr #1
 180:	00000000 	andeq	r0, r0, r0
 184:	00000002 	andeq	r0, r0, r2
 188:	0000000c 	andeq	r0, r0, ip
 18c:	000000ac 	andeq	r0, r0, ip, lsr #1
 190:	00000000 	andeq	r0, r0, r0
 194:	00000002 	andeq	r0, r0, r2
 198:	0000000c 	andeq	r0, r0, ip
 19c:	000000ac 	andeq	r0, r0, ip, lsr #1
 1a0:	00000000 	andeq	r0, r0, r0
 1a4:	00000002 	andeq	r0, r0, r2
 1a8:	0000000c 	andeq	r0, r0, ip
 1ac:	000000ac 	andeq	r0, r0, ip, lsr #1
 1b0:	00000000 	andeq	r0, r0, r0
 1b4:	00000014 	andeq	r0, r0, r4, lsl r0
 1b8:	0000000c 	andeq	r0, r0, ip
 1bc:	000000ac 	andeq	r0, r0, ip, lsr #1
 1c0:	00000000 	andeq	r0, r0, r0
 1c4:	00000014 	andeq	r0, r0, r4, lsl r0
 1c8:	0000000c 	andeq	r0, r0, ip
 1cc:	ffffffff 			; <UNDEFINED> instruction: 0xffffffff
 1d0:	7c020001 	stcvc	0, cr0, [r2], {1}
 1d4:	000d0c0e 	andeq	r0, sp, lr, lsl #24
 1d8:	00000024 	andeq	r0, r0, r4, lsr #32
 1dc:	000001c8 	andeq	r0, r0, r8, asr #3
 1e0:	00000000 	andeq	r0, r0, r0
 1e4:	0000001a 	andeq	r0, r0, sl, lsl r0
 1e8:	82080e41 	andhi	r0, r8, #1040	; 0x410
 1ec:	41018302 	tstmi	r1, r2, lsl #6
 1f0:	038e180e 	orreq	r1, lr, #917504	; 0xe0000
 1f4:	420c0e47 	andmi	r0, ip, #1136	; 0x470
 1f8:	41080ece 	smlabtmi	r8, lr, lr, r0
 1fc:	000ec2c3 	andeq	ip, lr, r3, asr #5
 200:	00000028 	andeq	r0, r0, r8, lsr #32
 204:	000001c8 	andeq	r0, r0, r8, asr #3
 208:	00001774 	andeq	r1, r0, r4, ror r7
 20c:	00000024 	andeq	r0, r0, r4, lsr #32
 210:	810c0e41 	tsthi	ip, r1, asr #28
 214:	83028203 	movwhi	r8, #8707	; 0x2203
 218:	180e4101 	stmdane	lr, {r0, r8, lr}
 21c:	0e4a048e 	cdpeq	4, 4, cr0, cr10, cr14, {4}
 220:	0ece4210 	mcreq	2, 6, r4, cr14, cr0, {0}
 224:	c2c3410c 	sbcgt	r4, r3, #12, 2
 228:	00000ec1 	andeq	r0, r0, r1, asr #29
 22c:	0000000c 	andeq	r0, r0, ip
 230:	ffffffff 			; <UNDEFINED> instruction: 0xffffffff
 234:	7c020001 	stcvc	0, cr0, [r2], {1}
 238:	000d0c0e 	andeq	r0, sp, lr, lsl #24
 23c:	0000001c 	andeq	r0, r0, ip, lsl r0
 240:	0000022c 	andeq	r0, r0, ip, lsr #4
 244:	00000000 	andeq	r0, r0, r0
 248:	00000038 	andeq	r0, r0, r8, lsr r0
 24c:	84180e42 	ldrhi	r0, [r8], #-3650	; 0xe42
 250:	86058506 	strhi	r8, [r5], -r6, lsl #10
 254:	88038704 	stmdahi	r3, {r2, r8, r9, sl, pc}
 258:	00018e02 	andeq	r8, r1, r2, lsl #28
 25c:	00000020 	andeq	r0, r0, r0, lsr #32
 260:	0000022c 	andeq	r0, r0, ip, lsr #4
 264:	00001798 	muleq	r0, r8, r7
 268:	0000003c 	andeq	r0, r0, ip, lsr r0
 26c:	83200e42 	teqhi	r0, #1056	; 0x420
 270:	85078408 	strhi	r8, [r7, #-1032]	; 0x408
 274:	87058606 	strhi	r8, [r5, -r6, lsl #12]
 278:	89038804 	stmdbhi	r3, {r2, fp, pc}
 27c:	00018e02 	andeq	r8, r1, r2, lsl #28
 280:	0000000c 	andeq	r0, r0, ip
 284:	ffffffff 			; <UNDEFINED> instruction: 0xffffffff
 288:	7c020001 	stcvc	0, cr0, [r2], {1}
 28c:	000d0c0e 	andeq	r0, sp, lr, lsl #24
 290:	00000018 	andeq	r0, r0, r8, lsl r0
 294:	00000280 	andeq	r0, r0, r0, lsl #5
 298:	000017d4 	ldrdeq	r1, [r0], -r4
 29c:	0000004c 	andeq	r0, r0, ip, asr #32
 2a0:	84100e42 	ldrhi	r0, [r0], #-3650	; 0xe42
 2a4:	86038504 	strhi	r8, [r3], -r4, lsl #10
 2a8:	00018e02 	andeq	r8, r1, r2, lsl #28
 2ac:	0000000c 	andeq	r0, r0, ip
 2b0:	ffffffff 			; <UNDEFINED> instruction: 0xffffffff
 2b4:	7c020001 	stcvc	0, cr0, [r2], {1}
 2b8:	000d0c0e 	andeq	r0, sp, lr, lsl #24
 2bc:	00000014 	andeq	r0, r0, r4, lsl r0
 2c0:	000002ac 	andeq	r0, r0, ip, lsr #5
 2c4:	00001820 	andeq	r1, r0, r0, lsr #16
 2c8:	0000001c 	andeq	r0, r0, ip, lsl r0
 2cc:	84080e41 	strhi	r0, [r8], #-3649	; 0xe41
 2d0:	00018e02 	andeq	r8, r1, r2, lsl #28
 2d4:	0000000c 	andeq	r0, r0, ip
 2d8:	ffffffff 			; <UNDEFINED> instruction: 0xffffffff
 2dc:	7c020001 	stcvc	0, cr0, [r2], {1}
 2e0:	000d0c0e 	andeq	r0, sp, lr, lsl #24
 2e4:	00000014 	andeq	r0, r0, r4, lsl r0
 2e8:	000002d4 	ldrdeq	r0, [r0], -r4
 2ec:	0000183c 	andeq	r1, r0, ip, lsr r8
 2f0:	00000016 	andeq	r0, r0, r6, lsl r0
 2f4:	84080e41 	strhi	r0, [r8], #-3649	; 0xe41
 2f8:	00018e02 	andeq	r8, r1, r2, lsl #28
 2fc:	0000000c 	andeq	r0, r0, ip
 300:	ffffffff 			; <UNDEFINED> instruction: 0xffffffff
 304:	7c020001 	stcvc	0, cr0, [r2], {1}
 308:	000d0c0e 	andeq	r0, sp, lr, lsl #24
 30c:	0000000c 	andeq	r0, r0, ip
 310:	000002fc 	strdeq	r0, [r0], -ip
 314:	00001852 	andeq	r1, r0, r2, asr r8
 318:	00000010 	andeq	r0, r0, r0, lsl r0
 31c:	0000000c 	andeq	r0, r0, ip
 320:	ffffffff 			; <UNDEFINED> instruction: 0xffffffff
 324:	7c020001 	stcvc	0, cr0, [r2], {1}
 328:	000d0c0e 	andeq	r0, sp, lr, lsl #24
 32c:	00000018 	andeq	r0, r0, r8, lsl r0
 330:	0000031c 	andeq	r0, r0, ip, lsl r3
 334:	00001864 	andeq	r1, r0, r4, ror #16
 338:	00000088 	andeq	r0, r0, r8, lsl #1
 33c:	840c0e41 	strhi	r0, [ip], #-3649	; 0xe41
 340:	8e028503 	cfsh32hi	mvfx8, mvfx2, #3
 344:	00000001 	andeq	r0, r0, r1
 348:	0000000c 	andeq	r0, r0, ip
 34c:	ffffffff 			; <UNDEFINED> instruction: 0xffffffff
 350:	7c020001 	stcvc	0, cr0, [r2], {1}
 354:	000d0c0e 	andeq	r0, sp, lr, lsl #24
 358:	00000018 	andeq	r0, r0, r8, lsl r0
 35c:	00000348 	andeq	r0, r0, r8, asr #6
 360:	000018ec 	andeq	r1, r0, ip, ror #17
 364:	000000ac 	andeq	r0, r0, ip, lsr #1
 368:	84100e41 	ldrhi	r0, [r0], #-3649	; 0xe41
 36c:	86038504 	strhi	r8, [r3], -r4, lsl #10
 370:	00018e02 	andeq	r8, r1, r2, lsl #28
 374:	0000000c 	andeq	r0, r0, ip
 378:	ffffffff 			; <UNDEFINED> instruction: 0xffffffff
 37c:	7c020001 	stcvc	0, cr0, [r2], {1}
 380:	000d0c0e 	andeq	r0, sp, lr, lsl #24
 384:	0000001c 	andeq	r0, r0, ip, lsl r0
 388:	00000374 	andeq	r0, r0, r4, ror r3
 38c:	00001998 	muleq	r0, r8, r9
 390:	0000002c 	andeq	r0, r0, ip, lsr #32
 394:	84080e42 	strhi	r0, [r8], #-3650	; 0xe42
 398:	4c018e02 	stcmi	14, cr8, [r1], {2}
 39c:	0ec4ce0a 	cdpeq	14, 12, cr12, cr4, cr10, {0}
 3a0:	000b4200 	andeq	r4, fp, r0, lsl #4
 3a4:	0000001c 	andeq	r0, r0, ip, lsl r0
 3a8:	00000374 	andeq	r0, r0, r4, ror r3
 3ac:	000019c4 	andeq	r1, r0, r4, asr #19
 3b0:	00000024 	andeq	r0, r0, r4, lsr #32
 3b4:	83180e41 	tsthi	r8, #1040	; 0x410
 3b8:	85058406 	strhi	r8, [r5, #-1030]	; 0x406
 3bc:	87038604 	strhi	r8, [r3, -r4, lsl #12]
 3c0:	00018e02 	andeq	r8, r1, r2, lsl #28
 3c4:	00000018 	andeq	r0, r0, r8, lsl r0
 3c8:	00000374 	andeq	r0, r0, r4, ror r3
 3cc:	00000000 	andeq	r0, r0, r0
 3d0:	0000001a 	andeq	r0, r0, sl, lsl r0
 3d4:	83100e41 	tsthi	r0, #1040	; 0x410
 3d8:	85038404 	strhi	r8, [r3, #-1028]	; 0x404
 3dc:	00018e02 	andeq	r8, r1, r2, lsl #28
 3e0:	00000028 	andeq	r0, r0, r8, lsr #32
 3e4:	00000374 	andeq	r0, r0, r4, ror r3
 3e8:	000019e8 	andeq	r1, r0, r8, ror #19
 3ec:	00000210 	andeq	r0, r0, r0, lsl r2
 3f0:	841c0e42 	ldrhi	r0, [ip], #-3650	; 0xe42
 3f4:	86068507 	strhi	r8, [r6], -r7, lsl #10
 3f8:	88048705 	stmdahi	r4, {r0, r2, r8, r9, sl, pc}
 3fc:	8e028903 	cdphi	9, 0, cr8, cr2, cr3, {0}
 400:	900e4101 	andls	r4, lr, r1, lsl #2
 404:	0ef20201 	cdpeq	2, 15, cr0, cr2, cr1, {0}
 408:	0000001c 	andeq	r0, r0, ip, lsl r0
 40c:	0000001c 	andeq	r0, r0, ip, lsl r0
 410:	00000374 	andeq	r0, r0, r4, ror r3
 414:	00001bf8 	strdeq	r1, [r0], -r8
 418:	0000001c 	andeq	r0, r0, ip, lsl r0
 41c:	840c0e41 	strhi	r0, [ip], #-3649	; 0xe41
 420:	8e028503 	cfsh32hi	mvfx8, mvfx2, #3
 424:	c5ce4901 	strbgt	r4, [lr, #2305]	; 0x901
 428:	00000ec4 	andeq	r0, r0, r4, asr #29
 42c:	0000000c 	andeq	r0, r0, ip
 430:	ffffffff 			; <UNDEFINED> instruction: 0xffffffff
 434:	7c020001 	stcvc	0, cr0, [r2], {1}
 438:	000d0c0e 	andeq	r0, sp, lr, lsl #24
 43c:	00000020 	andeq	r0, r0, r0, lsr #32
 440:	0000042c 	andeq	r0, r0, ip, lsr #8
 444:	00001c14 	andeq	r1, r0, r4, lsl ip
 448:	000000ea 	andeq	r0, r0, sl, ror #1
 44c:	83200e42 	teqhi	r0, #1056	; 0x420
 450:	85078408 	strhi	r8, [r7, #-1032]	; 0x408
 454:	87058606 	strhi	r8, [r5, -r6, lsl #12]
 458:	89038804 	stmdbhi	r3, {r2, fp, pc}
 45c:	00018e02 	andeq	r8, r1, r2, lsl #28
 460:	00000020 	andeq	r0, r0, r0, lsr #32
 464:	0000042c 	andeq	r0, r0, ip, lsr #8
 468:	00001d00 	andeq	r1, r0, r0, lsl #26
 46c:	00000234 	andeq	r0, r0, r4, lsr r2
 470:	84280e42 	strthi	r0, [r8], #-3650	; 0xe42
 474:	86058506 	strhi	r8, [r5], -r6, lsl #10
 478:	88038704 	stmdahi	r3, {r2, r8, r9, sl, pc}
 47c:	03018e02 	movweq	r8, #7682	; 0x1e02
 480:	180e0112 	stmdane	lr, {r1, r4, r8}
 484:	0000000c 	andeq	r0, r0, ip
 488:	ffffffff 			; <UNDEFINED> instruction: 0xffffffff
 48c:	7c020001 	stcvc	0, cr0, [r2], {1}
 490:	000d0c0e 	andeq	r0, sp, lr, lsl #24
 494:	00000020 	andeq	r0, r0, r0, lsr #32
 498:	00000484 	andeq	r0, r0, r4, lsl #9
 49c:	00000000 	andeq	r0, r0, r0
 4a0:	0000001a 	andeq	r0, r0, sl, lsl r0
 4a4:	83100e41 	tsthi	r0, #1040	; 0x410
 4a8:	85038404 	strhi	r8, [r3, #-1028]	; 0x404
 4ac:	4a018e02 	bmi	63cbc <__etext+0x612fc>
 4b0:	c3c4c5ce 	bicgt	ip, r4, #864026624	; 0x33800000
 4b4:	0000000e 	andeq	r0, r0, lr
 4b8:	00000024 	andeq	r0, r0, r4, lsr #32
 4bc:	00000484 	andeq	r0, r0, r4, lsl #9
 4c0:	00000000 	andeq	r0, r0, r0
 4c4:	000000b4 	strheq	r0, [r0], -r4
 4c8:	84100e42 	ldrhi	r0, [r0], #-3650	; 0xe42
 4cc:	86038504 	strhi	r8, [r3], -r4, lsl #10
 4d0:	02018e02 	andeq	r8, r1, #2, 28
 4d4:	c6ce0a53 			; <UNDEFINED> instruction: 0xc6ce0a53
 4d8:	000ec4c5 	andeq	ip, lr, r5, asr #9
 4dc:	00000b42 	andeq	r0, r0, r2, asr #22
 4e0:	0000000c 	andeq	r0, r0, ip
 4e4:	ffffffff 			; <UNDEFINED> instruction: 0xffffffff
 4e8:	7c020001 	stcvc	0, cr0, [r2], {1}
 4ec:	000d0c0e 	andeq	r0, sp, lr, lsl #24
 4f0:	00000018 	andeq	r0, r0, r8, lsl r0
 4f4:	000004e0 	andeq	r0, r0, r0, ror #9
 4f8:	00001f34 	andeq	r1, r0, r4, lsr pc
 4fc:	00000020 	andeq	r0, r0, r0, lsr #32
 500:	83100e41 	tsthi	r0, #1040	; 0x410
 504:	85038404 	strhi	r8, [r3, #-1028]	; 0x404
 508:	00018e02 	andeq	r8, r1, r2, lsl #28
 50c:	0000000c 	andeq	r0, r0, ip
 510:	ffffffff 			; <UNDEFINED> instruction: 0xffffffff
 514:	7c020001 	stcvc	0, cr0, [r2], {1}
 518:	000d0c0e 	andeq	r0, sp, lr, lsl #24
 51c:	00000014 	andeq	r0, r0, r4, lsl r0
 520:	0000050c 	andeq	r0, r0, ip, lsl #10
 524:	00001f54 	andeq	r1, r0, r4, asr pc
 528:	00000022 	andeq	r0, r0, r2, lsr #32
 52c:	84080e41 	strhi	r0, [r8], #-3649	; 0xe41
 530:	00018e02 	andeq	r8, r1, r2, lsl #28
 534:	0000000c 	andeq	r0, r0, ip
 538:	0000050c 	andeq	r0, r0, ip, lsl #10
 53c:	00000000 	andeq	r0, r0, r0
 540:	00000004 	andeq	r0, r0, r4
 544:	00000024 	andeq	r0, r0, r4, lsr #32
 548:	0000050c 	andeq	r0, r0, ip, lsl #10
 54c:	00001f76 	andeq	r1, r0, r6, ror pc
 550:	00000038 	andeq	r0, r0, r8, lsr r0
 554:	84180e42 	ldrhi	r0, [r8], #-3650	; 0xe42
 558:	86058506 	strhi	r8, [r5], -r6, lsl #10
 55c:	88038704 	stmdahi	r3, {r2, r8, r9, sl, pc}
 560:	58018e02 	stmdapl	r1, {r1, r9, sl, fp, pc}
 564:	c6c7c8ce 	strbgt	ip, [r7], lr, asr #17
 568:	000ec4c5 	andeq	ip, lr, r5, asr #9
 56c:	00000014 	andeq	r0, r0, r4, lsl r0
 570:	0000050c 	andeq	r0, r0, ip, lsl #10
 574:	00001fae 	andeq	r1, r0, lr, lsr #31
 578:	00000024 	andeq	r0, r0, r4, lsr #32
 57c:	84080e41 	strhi	r0, [r8], #-3649	; 0xe41
 580:	00018e02 	andeq	r8, r1, r2, lsl #28
 584:	0000000c 	andeq	r0, r0, ip
 588:	0000050c 	andeq	r0, r0, ip, lsl #10
 58c:	00001fd2 	ldrdeq	r1, [r0], -r2
 590:	00000008 	andeq	r0, r0, r8
 594:	0000000c 	andeq	r0, r0, ip
 598:	ffffffff 			; <UNDEFINED> instruction: 0xffffffff
 59c:	7c020001 	stcvc	0, cr0, [r2], {1}
 5a0:	000d0c0e 	andeq	r0, sp, lr, lsl #24
 5a4:	00000018 	andeq	r0, r0, r8, lsl r0
 5a8:	00000594 	muleq	r0, r4, r5
 5ac:	00001fdc 	ldrdeq	r1, [r0], -ip
 5b0:	000000a8 	andeq	r0, r0, r8, lsr #1
 5b4:	84100e41 	ldrhi	r0, [r0], #-3649	; 0xe41
 5b8:	86038504 	strhi	r8, [r3], -r4, lsl #10
 5bc:	00018e02 	andeq	r8, r1, r2, lsl #28
 5c0:	0000000c 	andeq	r0, r0, ip
 5c4:	00000594 	muleq	r0, r4, r5
 5c8:	00000000 	andeq	r0, r0, r0
 5cc:	00000014 	andeq	r0, r0, r4, lsl r0
 5d0:	0000000c 	andeq	r0, r0, ip
 5d4:	ffffffff 			; <UNDEFINED> instruction: 0xffffffff
 5d8:	7c020001 	stcvc	0, cr0, [r2], {1}
 5dc:	000d0c0e 	andeq	r0, sp, lr, lsl #24
 5e0:	00000018 	andeq	r0, r0, r8, lsl r0
 5e4:	000005d0 	ldrdeq	r0, [r0], -r0	; <UNPREDICTABLE>
 5e8:	00002084 	andeq	r2, r0, r4, lsl #1
 5ec:	00000024 	andeq	r0, r0, r4, lsr #32
 5f0:	83100e41 	tsthi	r0, #1040	; 0x410
 5f4:	85038404 	strhi	r8, [r3, #-1028]	; 0x404
 5f8:	00018e02 	andeq	r8, r1, r2, lsl #28
 5fc:	0000000c 	andeq	r0, r0, ip
 600:	ffffffff 			; <UNDEFINED> instruction: 0xffffffff
 604:	7c020001 	stcvc	0, cr0, [r2], {1}
 608:	000d0c0e 	andeq	r0, sp, lr, lsl #24
 60c:	00000018 	andeq	r0, r0, r8, lsl r0
 610:	000005fc 	strdeq	r0, [r0], -ip
 614:	000020a8 	andeq	r2, r0, r8, lsr #1
 618:	000000d8 	ldrdeq	r0, [r0], -r8
 61c:	84100e42 	ldrhi	r0, [r0], #-3650	; 0xe42
 620:	86038504 	strhi	r8, [r3], -r4, lsl #10
 624:	00018e02 	andeq	r8, r1, r2, lsl #28
 628:	0000000c 	andeq	r0, r0, ip
 62c:	ffffffff 			; <UNDEFINED> instruction: 0xffffffff
 630:	7c020001 	stcvc	0, cr0, [r2], {1}
 634:	000d0c0e 	andeq	r0, sp, lr, lsl #24
 638:	00000018 	andeq	r0, r0, r8, lsl r0
 63c:	00000628 	andeq	r0, r0, r8, lsr #12
 640:	00002180 	andeq	r2, r0, r0, lsl #3
 644:	00000020 	andeq	r0, r0, r0, lsr #32
 648:	83100e41 	tsthi	r0, #1040	; 0x410
 64c:	85038404 	strhi	r8, [r3, #-1028]	; 0x404
 650:	00018e02 	andeq	r8, r1, r2, lsl #28
 654:	0000000c 	andeq	r0, r0, ip
 658:	ffffffff 			; <UNDEFINED> instruction: 0xffffffff
 65c:	7c020001 	stcvc	0, cr0, [r2], {1}
 660:	000d0c0e 	andeq	r0, sp, lr, lsl #24
 664:	0000001c 	andeq	r0, r0, ip, lsl r0
 668:	00000654 	andeq	r0, r0, r4, asr r6
 66c:	000021a0 	andeq	r2, r0, r0, lsr #3
 670:	00000106 	andeq	r0, r0, r6, lsl #2
 674:	84180e43 	ldrhi	r0, [r8], #-3651	; 0xe43
 678:	86058506 	strhi	r8, [r5], -r6, lsl #10
 67c:	88038704 	stmdahi	r3, {r2, r8, r9, sl, pc}
 680:	00018e02 	andeq	r8, r1, r2, lsl #28
 684:	00000024 	andeq	r0, r0, r4, lsr #32
 688:	00000654 	andeq	r0, r0, r4, asr r6
 68c:	000022a8 	andeq	r2, r0, r8, lsr #5
 690:	00000054 	andeq	r0, r0, r4, asr r0
 694:	83100e41 	tsthi	r0, #1040	; 0x410
 698:	85038404 	strhi	r8, [r3, #-1028]	; 0x404
 69c:	5e018e02 	cdppl	14, 0, cr8, cr1, cr2, {0}
 6a0:	c4c5ce0a 	strbgt	ip, [r5], #3594	; 0xe0a
 6a4:	42000ec3 	andmi	r0, r0, #3120	; 0xc30
 6a8:	0000000b 	andeq	r0, r0, fp
 6ac:	0000000c 	andeq	r0, r0, ip
 6b0:	00000654 	andeq	r0, r0, r4, asr r6
 6b4:	00000000 	andeq	r0, r0, r0
 6b8:	00000024 	andeq	r0, r0, r4, lsr #32
 6bc:	0000000c 	andeq	r0, r0, ip
 6c0:	ffffffff 			; <UNDEFINED> instruction: 0xffffffff
 6c4:	7c020001 	stcvc	0, cr0, [r2], {1}
 6c8:	000d0c0e 	andeq	r0, sp, lr, lsl #24
 6cc:	00000018 	andeq	r0, r0, r8, lsl r0
 6d0:	000006bc 			; <UNDEFINED> instruction: 0x000006bc
 6d4:	000022fc 	strdeq	r2, [r0], -ip
 6d8:	00000024 	andeq	r0, r0, r4, lsr #32
 6dc:	83100e41 	tsthi	r0, #1040	; 0x410
 6e0:	85038404 	strhi	r8, [r3, #-1028]	; 0x404
 6e4:	00018e02 	andeq	r8, r1, r2, lsl #28
 6e8:	0000000c 	andeq	r0, r0, ip
 6ec:	ffffffff 			; <UNDEFINED> instruction: 0xffffffff
 6f0:	7c020001 	stcvc	0, cr0, [r2], {1}
 6f4:	000d0c0e 	andeq	r0, sp, lr, lsl #24
 6f8:	00000020 	andeq	r0, r0, r0, lsr #32
 6fc:	000006e8 	andeq	r0, r0, r8, ror #13
 700:	00002320 	andeq	r2, r0, r0, lsr #6
 704:	00000098 	muleq	r0, r8, r0
 708:	84140e41 	ldrhi	r0, [r4], #-3649	; 0xe41
 70c:	86048505 	strhi	r8, [r4], -r5, lsl #10
 710:	8e028703 	cdphi	7, 0, cr8, cr2, cr3, {0}
 714:	580e4201 	stmdapl	lr, {r0, r9, lr}
 718:	140e4602 	strne	r4, [lr], #-1538	; 0x602
 71c:	0000000c 	andeq	r0, r0, ip
 720:	ffffffff 			; <UNDEFINED> instruction: 0xffffffff
 724:	7c020001 	stcvc	0, cr0, [r2], {1}
 728:	000d0c0e 	andeq	r0, sp, lr, lsl #24
 72c:	00000018 	andeq	r0, r0, r8, lsl r0
 730:	0000071c 	andeq	r0, r0, ip, lsl r7
 734:	000023b8 			; <UNDEFINED> instruction: 0x000023b8
 738:	00000024 	andeq	r0, r0, r4, lsr #32
 73c:	83100e41 	tsthi	r0, #1040	; 0x410
 740:	85038404 	strhi	r8, [r3, #-1028]	; 0x404
 744:	00018e02 	andeq	r8, r1, r2, lsl #28
 748:	0000000c 	andeq	r0, r0, ip
 74c:	ffffffff 			; <UNDEFINED> instruction: 0xffffffff
 750:	7c020001 	stcvc	0, cr0, [r2], {1}
 754:	000d0c0e 	andeq	r0, sp, lr, lsl #24
 758:	00000018 	andeq	r0, r0, r8, lsl r0
 75c:	00000748 	andeq	r0, r0, r8, asr #14
 760:	000023dc 	ldrdeq	r2, [r0], -ip
 764:	00000024 	andeq	r0, r0, r4, lsr #32
 768:	83100e41 	tsthi	r0, #1040	; 0x410
 76c:	85038404 	strhi	r8, [r3, #-1028]	; 0x404
 770:	00018e02 	andeq	r8, r1, r2, lsl #28
 774:	0000000c 	andeq	r0, r0, ip
 778:	ffffffff 			; <UNDEFINED> instruction: 0xffffffff
 77c:	7c020001 	stcvc	0, cr0, [r2], {1}
 780:	000d0c0e 	andeq	r0, sp, lr, lsl #24
 784:	00000018 	andeq	r0, r0, r8, lsl r0
 788:	00000774 	andeq	r0, r0, r4, ror r7
 78c:	00002400 	andeq	r2, r0, r0, lsl #8
 790:	00000020 	andeq	r0, r0, r0, lsr #32
 794:	83100e41 	tsthi	r0, #1040	; 0x410
 798:	85038404 	strhi	r8, [r3, #-1028]	; 0x404
 79c:	00018e02 	andeq	r8, r1, r2, lsl #28
 7a0:	0000000c 	andeq	r0, r0, ip
 7a4:	ffffffff 			; <UNDEFINED> instruction: 0xffffffff
 7a8:	7c020001 	stcvc	0, cr0, [r2], {1}
 7ac:	000d0c0e 	andeq	r0, sp, lr, lsl #24
 7b0:	0000000c 	andeq	r0, r0, ip
 7b4:	000007a0 	andeq	r0, r0, r0, lsr #15
 7b8:	00002420 	andeq	r2, r0, r0, lsr #8
 7bc:	00000002 	andeq	r0, r0, r2

Disassembly of section .stabstr:

00000000 <.stabstr>:
   0:	74656700 	strbtvc	r6, [r5], #-1792	; 0x700
   4:	2e646970 	mcrcs	9, 3, r6, cr4, cr0, {3}
   8:	675f0063 	ldrbvs	r0, [pc, -r3, rrx]
   c:	69707465 	ldmdbvs	r0!, {r0, r2, r5, r6, sl, ip, sp, lr}^
  10:	73692064 	cmnvc	r9, #100	; 0x64
  14:	746f6e20 	strbtvc	r6, [pc], #-3616	; 1c <__isr_vector+0x1c>
  18:	706d6920 	rsbvc	r6, sp, r0, lsr #18
  1c:	656d656c 	strbvs	r6, [sp, #-1388]!	; 0x56c
  20:	6465746e 	strbtvs	r7, [r5], #-1134	; 0x46e
  24:	646e6120 	strbtvs	r6, [lr], #-288	; 0x120
  28:	6c697720 	stclvs	7, cr7, [r9], #-128	; 0xffffff80
  2c:	6c61206c 	stclvs	0, cr2, [r1], #-432	; 0xfffffe50
  30:	73796177 	cmnvc	r9, #-1073741795	; 0xc000001d
  34:	69616620 	stmdbvs	r1!, {r5, r9, sl, sp, lr}^
  38:	675f006c 	ldrbvs	r0, [pc, -ip, rrx]
  3c:	69707465 	ldmdbvs	r0!, {r0, r2, r5, r6, sl, ip, sp, lr}^
  40:	6b5f0064 	blvs	17c01d8 <__etext+0x17bd818>
  44:	206c6c69 	rsbcs	r6, ip, r9, ror #24
  48:	6e207369 	cdpvs	3, 2, cr7, cr0, cr9, {3}
  4c:	6920746f 	stmdbvs	r0!, {r0, r1, r2, r3, r5, r6, sl, ip, sp, lr}
  50:	656c706d 	strbvs	r7, [ip, #-109]!	; 0x6d
  54:	746e656d 	strbtvc	r6, [lr], #-1389	; 0x56d
  58:	61206465 	teqvs	r0, r5, ror #8
  5c:	7720646e 	strvc	r6, [r0, -lr, ror #8]!
  60:	206c6c69 	rsbcs	r6, ip, r9, ror #24
  64:	61776c61 	cmnvs	r7, r1, ror #24
  68:	66207379 			; <UNDEFINED> instruction: 0x66207379
  6c:	006c6961 	rsbeq	r6, ip, r1, ror #18
  70:	6c696b5f 	stclvs	11, cr6, [r9], #-380	; 0xfffffe84
  74:	Address 0x0000000000000074 is out of bounds.

